
build/rtssamd.elf:     file format elf32-littlearm
architecture: armv6s-m, flags 0x00000112:
EXEC_P, HAS_SYMS, D_PAGED
start address 0x000080c1

Contents of section .init:
 8000 f8b5c046 f8bc08bc 9e467047           ...F.....FpG    
Contents of section .text:
 800c 10b50021 040000f0 d3fe044b 1868c36b  ...!.......K.h.k
 801c 002b00d0 98472000 00f05af9 f8910000  .+...G ...Z.....
 802c 13b58024 00f066f9 64000120 00f0cef9  ...$..f.d.. ....
 803c 20000649 00f00efa 00232000 044a0093   ..I.....# ..J..
 804c 002300f0 4bfa00f0 7ffac046 65810000  .#..K......Fe...
 805c b6030000 034b10b5 002b02d0 024800f0  .....K...+...H..
 806c 19ff10bd 00000000 b18e0000 10b5064c  ...............L
 807c 2378002b 07d1054b 002b02d0 044800e0  #x.+...K.+...H..
 808c 00bf0123 237010bd 609a0100 00000000  ...##p..`.......
 809c 04920000 044b10b5 002b03d0 03490448  .....K...+...I.H
 80ac 00e000bf 10bdc046 00000000 649a0100  .......F....d...
 80bc 04920000 164b002b 00d1144b 9d464022  .....K.+...K.F@"
 80cc 92029a1a 92460021 8b460f46 1348144a  .....F.!.F.F.H.J
 80dc 121a00f0 f7fd0f4b 002b00d0 98470e4b  .......K.+...G.K
 80ec 002b00d0 98470020 00210400 0d000d48  .+...G. .!.....H
 80fc 002802d0 0c4800f0 cdfe00f0 f7fa2000  .(...H........ .
 810c 2900fff7 8dfffff7 7bffc046 00000800  ).......{..F....
 811c 00000000 00000000 00000000 5c9a0100  ............\...
 812c 0c9b0100 a18e0000 b18e0000 4022014b  ............@".K
 813c 1a607047 08440041 01238340 014a1360  .`pG.D.A.#.@.J.`
 814c 7047c046 18440041 01238340 014a1360  pG.F.D.A.#.@.J.`
 815c 7047c046 14440041 37b50c4c 06202578  pG.F.D.A7..L. %x
 816c 002d0bd0 fff7f0ff 0023094a 23700093  .-.......#.J#p..
 817c 80200023 400000f0 b1f937bd fff7dcff  . .#@.....7.....
 818c 01233222 23700095 f2e7c046 7c9a0100  .#2"#p.....F|...
 819c b6030000 fa210d4b 10b51868 890000f0  .....!.K...h....
 81ac 19fa8023 01385b04 98420dd2 c021084a  ...#.8[..B...!.J
 81bc 09065060 0748036a 1b021b0a 0b430362  ..P`.H.j.....C.b
 81cc 00239360 07331360 10bdc046 18920100  .#.`.3.`...F....
 81dc 10e000e0 00ed00e0 70b5fa25 0624ed00  ........p..%.$..
 81ec 2000fff7 a9ff2800 00f0baf8 2000fff7   .....(..... ...
 81fc abfffa20 400000f0 b3f8f1e7 70b5fa25  ... @.......p..%
 820c 0624ad00 2000fff7 97ff2800 00f0a8f8  .$.. .....(.....
 821c 2000fff7 99ff9620 00f0a2f8 f2e770b5   ...... ......p.
 822c fa250624 ad002000 fff786ff 642000f0  .%.$.. .....d ..
 823c 97f82000 fff788ff 280000f0 91f8f2e7  .. .....(.......
 824c 70b5fa25 06246d00 2000fff7 75ff3220  p..%.$m. ...u.2 
 825c 00f086f8 2000fff7 77ff2800 00f080f8  .... ...w.(.....
 826c f2e770b5 06253224 2800fff7 65ff2000  ..p..%2$(...e. .
 827c 00f076f8 2800fff7 67ff2000 00f070f8  ..v.(...g. ...p.
 828c f2e770b5 06256424 2800fff7 55ff2000  ..p..%d$(...U. .
 829c 00f066f8 2800fff7 57ff2000 00f060f8  ..f.(...W. ...`.
 82ac f2e710b5 72b60138 ff380428 0ed800f0  ....r..8.8.(....
 82bc 87f90305 07090b00 fff78eff fff79eff  ................
 82cc fff7adff fff7cdff fff7baff fff7d9ff  ................
 82dc fee70000 054a0300 11680029 01d10449  .....J...h.)...I
 82ec 11601068 c3181360 7047c046 809a0100  .`.h...`pG.F....
 82fc 0c9b0100 10b5fff7 19fffff7 4bff10bd  ............K...
 830c f7b51348 01228446 1249134c 8e686368  ...H.".F.I.L.hch
 831c 05689b0e 13400192 88686268 019f920e  .h...@...hbh....
 832c 3a406746 3f689342 0ed1bd42 0cd18642  :@gF?h.B...B...B
 833c 0ad35b19 fa254868 ad00861b 07486b43  ..[..%Hh.....HkC
 834c 7043000d c018febd 3d001300 0600e3e7  pC......=.......
 835c 849a0100 10e000e0 00ed00e0 55550000  ............UU..
 836c 70b5041e 11d0fff7 cbfffa26 0500b600  p..........&....
 837c 00f00cf8 fff7c4ff 401bb042 f8d3fa23  ........@..B...#
 838c 013c9b00 ed18002c f4d170bd 70470000  .<.....,..p.pG..
 839c 01000020 0200084b 30b51c68 074b1b68  ... ...K0..h.K.h
 83ac 944200dc 30bd1800 38331d00 383d2d88  .B..0...83..8=-.
 83bc 8d42f7d0 0132f3e7 e09a0100 dc9a0100  .B...2..........
 83cc 822010b5 4000fff7 6cff10bd 431ef7b5  . ..@...l...C...
 83dc 1c4c0f2b 1ed91023 23603820 23685843  .L.+...##`8 #hXC
 83ec 00f0a6f9 184d2860 002803d1 0220ff30  .....M(`.(... .0
 83fc fff757ff 0022154b 11001a60 23683827  ..W..".K...`#h8'
 840c 01932b68 00241e00 00252136 01989042  ..+h.$...%!6...B
 841c 02dcf7bd 2060e0e7 581c9c60 dd601c61  .... `..X..`.`.a
 842c 5d619c61 dd611980 c1773800 50433154  ]a.a.a...w8.PC1T
 843c d81cc177 06485962 9862d962 19630132  ...w.HYb.b.b.c.2
 844c 3833e3e7 e09a0100 dc9a0100 a49a0100  83..............
 845c cd830000 f8b50025 1b4b1c4c 1a682668  .......%.K.L.h&h
 846c 2132ae42 04dc8020 4000fff7 1aff1ae0  !2.B... @.......
 847c 13003832 1700383f 3f78213b 002f21d1  ..82..8??x!;./!.
 848c 18800120 9a1cd077 99621149 0a681218  ... ...w.b.I.h..
 849c 0a60104a 10481168 00290ed0 00681963  .`.J.H.h.)...h.c
 84ac d8621360 cb620a4b 1a682368 9a4203dd  .b.`.b.K.h#h.B..
 84bc 0220ff30 fff7f5fe f8bd1360 0360db62  . .0.......`.`.b
 84cc 1b63f0e7 0135cce7 dc9a0100 e09a0100  .c...5..........
 84dc a49a0100 a09a0100 9c9a0100 70b51400  ............p...
 84ec 1d00fff7 55ff0028 12d00a4b 8461c561  ....U..(...K.a.a
 84fc 1a685b68 8260c360 a4185d41 0122431c  .h[h.`.`..]A."C.
 850c 04614561 da770022 c31cda77 049b4362  .aEa.w."...w..Cb
 851c 70bdc046 909a0100 70b50c00 fff738ff  p..F....p.....8.
 852c 00280ed0 8569c669 064b1a68 5b688260  .(...i.i.K.h[h.`
 853c c3605219 73410261 43610122 431cda77  .`R.sA.aCa."C..w
 854c 446270bd 909a0100 184b70b5 1c68002c  Dbp......Kp..h.,
 855c 00d1fee7 164a651c 13680133 1360eb7f  .....Je..h.3.`..
 856c 002b21d0 134b6169 1a685b68 99421bd8  .+!..Kai.h[h.B..
 857c 02d12169 914217d8 00230f4a eb771368  ..!i.B...#.J.w.h
 858c 606a0133 1360a36a 9847e31c db7f002b  `j.3.`.j.G.....+
 859c 06d0eb7f 002b03d1 2088616a fff7bcff  .....+.. .aj....
 85ac 064a1368 01331360 e46ad3e7 9c9a0100  .J.h.3.`.j......
 85bc 8c9a0100 909a0100 889a0100 989a0100  ................
 85cc 02b47146 49084900 095c4900 8e4402bc  ..qFI.I..\I..D..
 85dc 7047c046 00224308 8b4274d3 03098b42  pG.F."C..Bt....B
 85ec 5fd3030a 8b4244d3 030b8b42 28d3030c  _....BD....B(...
 85fc 8b420dd3 ff220902 12ba030c 8b4202d3  .B...".......B..
 860c 12120902 65d0030b 8b4219d3 00e0090a  ....e....B......
 861c c30b8b42 01d3cb03 c01a5241 830b8b42  ...B......RA...B
 862c 01d38b03 c01a5241 430b8b42 01d34b03  ......RAC..B..K.
 863c c01a5241 030b8b42 01d30b03 c01a5241  ..RA...B......RA
 864c c30a8b42 01d3cb02 c01a5241 830a8b42  ...B......RA...B
 865c 01d38b02 c01a5241 430a8b42 01d34b02  ......RAC..B..K.
 866c c01a5241 030a8b42 01d30b02 c01a5241  ..RA...B......RA
 867c cdd2c309 8b4201d3 cb01c01a 52418309  .....B......RA..
 868c 8b4201d3 8b01c01a 52414309 8b4201d3  .B......RAC..B..
 869c 4b01c01a 52410309 8b4201d3 0b01c01a  K...RA...B......
 86ac 5241c308 8b4201d3 cb00c01a 52418308  RA...B......RA..
 86bc 8b4201d3 8b00c01a 52414308 8b4201d3  .B......RAC..B..
 86cc 4b00c01a 5241411a 00d20146 52411046  K...RAA....FRA.F
 86dc 7047ffe7 01b50020 00f006f8 02bdc046  pG..... .......F
 86ec 0029f7d0 76e77047 7047c046 70b50c4d  .)..v.pGpG.Fp..M
 86fc 0c4e761b b61005d0 002408cd 01349847  .Nv......$...4.G
 870c a642fad1 fff776fc 074d084e 761bb610  .B....v..M.Nv...
 871c 05d00024 08cd0134 9847a642 fad170bd  ...$...4.G.B..p.
 872c 08920100 08920100 08920100 10920100  ................
 873c 10b5034b 01001868 00f004f8 10bdc046  ...K...h.......F
 874c 1c920100 f0b54e46 4546de46 5746e0b5  ......NFEF.FWF..
 875c 0d000b35 060083b0 162d22d8 102900d9  ...5.....-"..)..
 876c b2e000f0 03fb1025 02201823 cb4ffb18  .......%. .#.O..
 877c 1a005c68 083a9442 00d1b5e0 03236268  ..\h.:.B.....#bh
 878c 9a431300 e268a168 ca609160 0122e318  .C...h.h.`.`."..
 879c 59683000 0a435a60 00f0f0fa 20000830  Yh0..CZ`.... ..0
 87ac 95e00723 9d4300d5 8ee0a942 00d98be0  ...#.C.....B....
 87bc 00f0dcfa fc235b00 9d4200d2 a5e1680a  .....#[..B....h.
 87cc 00d18be0 042800d9 78e13823 9846a809  .....(..x.8#.F..
 87dc 80443930 c100b14f 79184c68 0839a142  .D90...Oy.Lh.9.B
 87ec 0ed00323 9c4604e0 002acbda e468a142  ...#.F...*...h.B
 87fc 06d06246 63689343 5a1b0f2a f4dd4046  ..bFch.CZ..*..@F
 880c 3a003c69 08329442 00d178e0 03236168  :.<i.2.B..x..#ah
 881c 99438946 0b00491b 0f2900dd 79e17a61  .C.F..I..)..y.za
 882c 3a610029 b2da8022 92009145 00d30ee1  :a.)..."...E....
 883c 5909da08 01238b40 d2007968 d2190b43  Y....#.@..yh...C
 884c 91687b60 e260a160 9460cc60 01218210  .h{`.`.`.`.`.!..
 885c 91409942 59d80b42 05d10322 90434900  .@.BY..B...".CI.
 886c 04300b42 fbd00323 9846c300 9946b944  .0.B...#.F...F.D
 887c cc468246 6346dc68 a44507d1 2ae1002a  .F.FcF.h.E..*..*
 888c 00db33e1 e468a445 00d123e1 42466368  ..3..h.E..#.BFch
 889c 93435a1b 0f2af2dd 01208046 61190543  .CZ..*... .Fa..C
 88ac 6560a068 e5680837 c560a860 40461043  e`.h.h.7.`.`@F.C
 88bc f960b960 4860cf60 30008f60 e25000f0  .`.`H`.`0..`.P..
 88cc 5dfa2000 083002e0 0c230020 336003b0  ]. ..0...#. 3`..
 88dc 3cbc9046 9946a246 ab46f0bd 80213f23  <..F.F.F.F...!?#
 88ec 40209846 890076e7 dc680230 a34200d0  @ .F..v..h.0.B..
 88fc 44e73a00 3c690832 944200d0 86e70121  D.:.<i.2.B.....!
 890c 7b688210 91409942 a5d90323 bc686268  {h...@.B...#.hbh
 891c 9a439146 954203d8 531b0f2b 00dd88e0  .C.F.B..S..+....
 892c 23004b44 5e4a0193 5e4b9346 1b681268  #.KD^J..^K.F.h.h
 893c eb180132 00d13be1 5b4a9446 63441b0b  ...2..;.[J.FcD..
 894c 1b030093 30000099 00f020fa 03008046  ....0..... ....F
 895c 013300d1 f8e0019b 834200d9 f2e0534b  .3.......B....SK
 896c 19009a46 0968009b 8c465146 63440b60  ...F.h...FQFcD.`
 897c 01991a00 814200d1 50e15b46 1b680133  .....B..P.[F.h.3
 898c 00d155e1 43460199 5b1a9a18 53461a60  ..U.CF..[...SF.`
 899c 07234246 41461a40 01921942 00d111e1  .#BFAF.@...B....
 89ac 08239846 881a424b 00998044 41449b1a  .#.F..BK...DAD..
 89bc 5b1a1b05 1b0d0091 30001900 9b4600f0  [.......0....F..
 89cc e5f9431c 00d14fe1 4346c01a 03005b44  ..C...O.CF....[D
 89dc 00935346 52461b68 01215b44 13604246  ..SFRF.h.![D.`BF
 89ec 4046ba60 009a0a43 4260bc42 00d123e1  @F.`...CB`.B..#.
 89fc 4a460f2a 00d821e1 07200c3a 82436068  JF.*..!.. .:.C`h
 8a0c 01400520 11436160 a1184860 88600f2a  .@. .Ca`..H`.`.*
 8a1c 00d934e1 42464446 52682649 08689842  ..4.BFDFRh&I.h.B
 8a2c 00d20b60 24490868 984200d3 8ee00b60  ...`$I.h.B.....`
 8a3c 8ce00122 29001343 11436519 61603000  ...")..C.Ce.a`0.
 8a4c bd606b60 00f09af9 20000830 3fe75a0a  .`k`.... ..0?.Z.
 8a5c 042a71d9 142a00d9 c4e01100 5c325b31  .*q..*......\2[1
 8a6c d2000823 5b429c46 ba189444 63469a68  ...#[B.F...DcF.h
 8a7c 03239846 944500d1 9de04346 51689943  .#.F.E....CFQh.C
 8a8c 494502d9 92689445 f7d1d368 9c467b68  IE...h.E...h.F{h
 8a9c 6146a260 e1608c60 d460d7e6 48960100  aF.`.`.`.`..H...
 8aac 509a0100 d89a0100 0f100000 a89a0100  P...............
 8abc 08100000 d09a0100 d49a0100 142852d9  .............(R.
 8acc 542800d9 96e06e23 9846280b 80446f30  T(....n#.F(..Do0
 8adc c10080e6 08239b46 073bdc44 9b46da44  .....#.F.;.D.F.D
 8aec 43465246 134200d0 c4e64ce0 0122e318  CFRF.B....L.."..
 8afc 59683000 0a435a60 e368a268 d3609a60  Yh0..CZ`.h.h.`.`
 8b0c 00f03cf9 20000830 e1e62b00 e8080833  ..<. ..0..+....3
 8b1c 2ce60123 60191d43 65607861 3861c260  ,..#`..Ce`xa8a.`
 8b2c 82601a00 4b460a43 42603000 e15000f0  .`..KF.CB`0..P..
 8b3c 25f92000 0830cae6 9a091100 39323831  %. ..0......9281
 8b4c d2008ee7 bc4260d0 bc686268 03239a43  .....B`..hbh.#.C
 8b5c 531b9542 02d80f2b 00dd6ae7 300000f0  S..B...+..j.0...
 8b6c 0df90020 b3e65b23 98468044 5c30c100  ... ..[#.F.D\0..
 8b7c 31e60823 5b429c46 e1444b46 9b680138  1..#[B.F.DKF.h.8
 8b8c 4b4500d0 98e04346 0342f2d1 7b688b43  KE....CF.B..{h.C
 8b9c 7b604900 994200d9 b7e60029 04d1b4e6  {`I..B.....)....
 8bac 04229446 4900e244 0b42f9d0 50465ce6  .".FI..D.B..PF\.
 8bbc 10330093 c6e68910 023b8b40 79680b43  .3.......;.@yh.C
 8bcc 7b6065e7 009b3000 43445b42 1b051b0d  {`e...0.CD[B....
 8bdc 19009b46 00f0daf8 431c00d0 f4e60023  ...F....C......#
 8bec 9b46f6e6 542a2bd8 1a0b1100 6f326e31  .F..T*+.....o2n1
 8bfc d20036e7 aa235b00 98422bd8 dd3b9846  ..6..#[..B+..;.F
 8c0c e80b8044 7830c100 e5e52c4b 009a9a46  ...Dx0....,K...F
 8c1c 1b689c46 53466244 1a60aee6 090500d0  .h.FSFbD.`......
 8c2c abe6009a bc684a44 01310a43 6260f4e6  .....hJD.1.Cb`..
 8c3c 5b464246 1a60abe6 4446eee6 41608de7  [FBF.`..DF..A`..
 8c4c aa214900 8a4224d8 da0b1100 78327731  .!I..B$.....x2w1
 8c5c d20006e7 1a4b9842 24d87c23 9846a80c  .....K.B$.|#.F..
 8c6c 80447d30 c100b6e5 009a019b 94464246  .D}0.........FBF
 8c7c 083b6344 9b1a0093 00239b46 a9e62100  .;cD.....#.F..!.
 8c8c 30000831 00f070f9 5346bc68 1b686268  0..1..p.SF.h.hbh
 8c9c c3e60b49 8a420bd8 9a0c1100 7d327c31  ...I.B......}2|1
 8cac d200dee6 fe217e23 7f209846 890092e5  .....!~#. .F....
 8cbc fe227e21 9200d4e6 7b686ae7 a89a0100  ."~!....{hj.....
 8ccc 54050000 f0b50500 83074ad0 541e002a  T.........J.T..*
 8cdc 44d00300 0322ceb2 02e00135 013c3dd3  D....".....5.<=.
 8cec 01332e70 1342f8d1 032c2fd9 ff220a40  .3.p.B...,/..".@
 8cfc 15021543 2a041543 0f2c35d9 2700103f  ...C*..C.,5.'..?
 8d0c 3f093e01 b4461e00 1a001036 66441560  ?.>..F.....6fD.`
 8d1c 55609560 d5601032 b242f8d1 0f260c22  U`.`.`.2.B...&."
 8d2c 01373f01 2640db19 37002242 17d03e1f  .7?.&@..7."B..>.
 8d3c b608b400 a4461a00 1c1d6444 20c2a242  .....F....dD ..B
 8d4c fcd10324 0136b600 9b193c40 002c05d0  ...$.6....<@.,..
 8d5c c9b21c19 19700133 9c42fbd1 f0bd3400  .....p.3.B....4.
 8d6c f4e71400 0300bfe7 2700e0e7 10b50248  ........'......H
 8d7c 00f0dcf9 10bdc046 f49a0100 10b50248  .......F.......H
 8d8c 00f0d6f9 10bdc046 f49a0100 002370b5  .......F.....#p.
 8d9c 064d0400 08002b60 fff79cfa 431c00d0  .M....+`....C...
 8dac 70bd2b68 002bfbd0 2360f9e7 089b0100  p.+h.+..#`......
 8dbc f0b5de46 4e465746 4546e0b5 334b83b0  ...FNFWFEF..3K..
 8dcc 1b680190 18000093 0f0000f0 aff9304b  .h............0K
 8ddc 1b681a00 0093a423 5b00d658 01229946  .h.....#[..X.".F
 8dec 9346002e 30d07468 651e2dd4 c4235b00  .F..0.the.-..#[.
 8dfc 9a460134 a4003419 b24402e0 043c013d  .F.4..4..D...<.=
 8e0c 22d3002f 04d08023 5b00e358 bb42f5d1  "../...#[..X.B..
 8e1c 73682268 013bab42 32d00023 2360002a  sh"h.;.B2..##`.*
 8e2c ecd07368 51469846 5b46ab40 09681942  ..shQF.F[F.@.h.B
 8e3c 15d19047 73684345 1ed14a46 009b9b58  ...GshCE..JF...X
 8e4c b342dbd0 1e1eced1 104b1868 00f070f9  .B.......K.h..p.
 8e5c 03b03cbc 90469946 a246ab46 f0bd3100  ..<..F.F.F.F..1.
 8e6c 8d31ff31 09681942 0cd18023 0198e158  .1.1.h.B...#...X
 8e7c 90477368 4345e0d0 4a46009b 9e58b0e7  .GshCE..JF...X..
 8e8c 7560cce7 8023e058 9047d3e7 589a0100  u`...#.X.G..X...
 8e9c f8910000 10b50100 00230022 002000f0  .........#.". ..
 8eac 49f910bd 70b5074d 074c641b a41005d0  I...p..M.Ld.....
 8ebc 013ca300 eb589847 002cf9d1 00f090f9  .<...X.G.,......
 8ecc 70bdc046 10920100 14920100 f8b50c00  p..F............
 8edc 0500fff7 4bff204f bb685e68 03239e43  ....K. O.h^h.#.C
 8eec 1e4b341b 9c466444 240b013c 11332403  .K4..FdD$..<.3$.
 8efc 9c4207db 00212800 fff748ff bb689b19  .B...!(...H..h..
 8f0c 984204d0 2800fff7 39ff0020 f8bd2800  .B..(...9.. ..(.
 8f1c 6142fff7 3bff431c 0dd00122 bb68361b  aB..;.C....".h6.
 8f2c 16435e60 0e4b2800 1a68141b 1c60fff7  .C^`.K(..h...`..
 8f3c 25ff0120 eae70021 2800fff7 27ffba68  %.. ...!(...'..h
 8f4c 831a0f2b dedd0749 0968401a 04490860  ...+...I.h@..I.`
 8f5c 01210b43 5360d5e7 48960100 ef0f0000  .!.CS`..H.......
 8f6c a89a0100 509a0100 f0b5c646 05000c00  ....P......F....
 8f7c 00b50029 4fd0fff7 f9fe2100 08394c68  ...)O.....!..9Lh
 8f8c 01262200 0320b243 8f187b68 83436248  .&".. .C..{h.CbH
 8f9c 98468368 bb426bd0 43467b60 26421ed1  .F.h.Bk.CF{`&B..
 8fac 08239c46 0c688444 091b1219 8c686445  .#.F.h.D.....hdE
 8fbc 4fd0cb68 e3609c60 4346fc18 64683442  O..h.`.`CF..dh4B
 8fcc 11d1bb68 554c4244 a34200d1 7fe0fc68  ...hULBD.B.....h
 8fdc dc60a360 01231343 4b608a50 06e0fc18  .`.`.#.CK`.P....
 8fec 64683442 edd01643 4e603a60 80239b00  dh4B...CN`:`.#..
 8ffc 9a4213d2 5409d308 0122a240 4468db00  .B..T....".@Dh..
 900c 22434260 18188368 c8608b60 8160d960  "CB`...h.`.`.`.`
 901c 2800fff7 b3fe04bc 9046f0bd 530a042b  (........F..S..+
 902c 3fd89409 26003934 3836e400 04192368  ?...&.9486....#h
 903c 083c0327 9c4243d0 5868b843 904202d9  .<.'.BC.Xh.C.B..
 904c 9b689c42 f8d1dc68 cc608b60 a160d960  .h.B...h.`.`.`.`
 905c dee74346 f8184068 304258d1 1300b868  ..CF..@h0BX....h
 906c fa684344 1e43c260 90604e60 cb50cfe7  .hCD.C.`.`N`.P..
 907c 13004344 264206d1 0a68891a 8c689b18  ..CD&B...h...h..
 908c ca68e260 94600122 1a434a60 244a8160  .h.`.`.".CJ`$J.`
 909c 12689a42 bcd8234b 28001968 fff716ff  .h.B..#K(..h....
 90ac b6e7142b 07d9542b 1ad8140b 26006f34  ...+..T+....&.o4
 90bc 6e36e400 bae71e00 5c335b36 dc00b5e7  n6......\3[6....
 90cc 0122b610 b2404668 32434260 bce7d960  ."...@Fh2CB`...`
 90dc 9960cb60 8b600123 13434b60 8a5097e7  .`.`.`.#.CK`.P..
 90ec aa246400 a34205d8 d40b2600 78347736  .$d..B....&.x4w6
 90fc e4009be7 0c4ca342 05d8940c 26007d34  .....L.B....&.}4
 910c 7c36e400 92e7fe24 7e26a400 8ee73300  |6.....$~&....3.
 911c 13434b60 3a607be7 48960100 50960100  .CK`:`{.H...P...
 912c 549a0100 d89a0100 54050000 7047c046  T.......T...pG.F
 913c 7047c046 f0b5d646 4f464646 c0b5264f  pG.F...FOFFF..&O
 914c 82b00600 38689246 98468946 fff7eeff  ....8h.F.F.F....
 915c 224b1b68 0193a423 019a5b00 d558002d  "K.h...#..[..X.-
 916c 2ed06c68 1f2c30dc 002e0fd1 631c6b60  ..lh.,0.....c.k`
 917c 4b460234 a4003868 6351fff7 d9ff0020  KF.4..8hcQ..... 
 918c 02b01cbc 90469946 a246f0bd 88225146  .....F.F.F..."QF
 919c 2800a300 eb189950 873aa240 8930ff30  (......P.:.@.0.0
 91ac 01681143 01608421 40464900 5850022e  .h.C.`.!@FI.XP..
 91bc dcd12b00 8d33ff33 19680a43 1a60d5e7  ..+..3.3.h.C.`..
 91cc 15004d35 ff35d550 cbe73868 fff7b0ff  ..M5.5.P..8h....
 91dc 01204042 d4e7c046 589a0100 f8910000  . @B...FX.......
Contents of section .fini:
 91ec f8b5c046 f8bc08bc 9e467047           ...F.....FpG    
Contents of section .rodata:
 91f8 20920100                              ...            
Contents of section .ARM.exidx:
 91fc c4eeff7f 01000000                    ........        
Contents of section .eh_frame:
 9204 00000000                             ....            
Contents of section .init_array:
 19208 61800000 a1800000                    a.......        
Contents of section .fini_array:
 19210 79800000                             y...            
Contents of section .data:
 19218 40420f00 20920100 00000000 0c950100  @B.. ...........
 19228 74950100 dc950100 00000000 00000000  t...............
 19238 00000000 00000000 00000000 00000000  ................
 19248 00000000 00000000 00000000 00000000  ................
 19258 00000000 00000000 00000000 00000000  ................
 19268 00000000 00000000 00000000 00000000  ................
 19278 00000000 00000000 00000000 00000000  ................
 19288 00000000 00000000 00000000 00000000  ................
 19298 00000000 00000000 00000000 00000000  ................
 192a8 00000000 00000000 00000000 00000000  ................
 192b8 00000000 00000000 00000000 00000000  ................
 192c8 01000000 00000000 0e33cdab 34126de6  .........3..4.m.
 192d8 ecde0500 0b000000 00000000 00000000  ................
 192e8 00000000 00000000 00000000 00000000  ................
 192f8 00000000 00000000 00000000 00000000  ................
 19308 00000000 00000000 00000000 00000000  ................
 19318 00000000 00000000 00000000 00000000  ................
 19328 00000000 00000000 00000000 00000000  ................
 19338 00000000 00000000 00000000 00000000  ................
 19348 00000000 00000000 00000000 00000000  ................
 19358 00000000 00000000 00000000 00000000  ................
 19368 00000000 00000000 00000000 00000000  ................
 19378 00000000 00000000 00000000 00000000  ................
 19388 00000000 00000000 00000000 00000000  ................
 19398 00000000 00000000 00000000 00000000  ................
 193a8 00000000 00000000 00000000 00000000  ................
 193b8 00000000 00000000 00000000 00000000  ................
 193c8 00000000 00000000 00000000 00000000  ................
 193d8 00000000 00000000 00000000 00000000  ................
 193e8 00000000 00000000 00000000 00000000  ................
 193f8 00000000 00000000 00000000 00000000  ................
 19408 00000000 00000000 00000000 00000000  ................
 19418 00000000 00000000 00000000 00000000  ................
 19428 00000000 00000000 00000000 00000000  ................
 19438 00000000 00000000 00000000 00000000  ................
 19448 00000000 00000000 00000000 00000000  ................
 19458 00000000 00000000 00000000 00000000  ................
 19468 00000000 00000000 00000000 00000000  ................
 19478 00000000 00000000 00000000 00000000  ................
 19488 00000000 00000000 00000000 00000000  ................
 19498 00000000 00000000 00000000 00000000  ................
 194a8 00000000 00000000 00000000 00000000  ................
 194b8 00000000 00000000 00000000 00000000  ................
 194c8 00000000 00000000 00000000 00000000  ................
 194d8 00000000 00000000 00000000 00000000  ................
 194e8 00000000 00000000 00000000 00000000  ................
 194f8 00000000 00000000 00000000 00000000  ................
 19508 00000000 00000000 00000000 00000000  ................
 19518 00000000 00000000 00000000 00000000  ................
 19528 00000000 00000000 00000000 00000000  ................
 19538 00000000 00000000 00000000 00000000  ................
 19548 00000000 00000000 00000000 00000000  ................
 19558 00000000 00000000 00000000 00000000  ................
 19568 00000000 00000000 00000000 00000000  ................
 19578 00000000 00000000 00000000 00000000  ................
 19588 00000000 00000000 00000000 00000000  ................
 19598 00000000 00000000 00000000 00000000  ................
 195a8 00000000 00000000 00000000 00000000  ................
 195b8 00000000 00000000 00000000 00000000  ................
 195c8 00000000 00000000 00000000 00000000  ................
 195d8 00000000 00000000 00000000 00000000  ................
 195e8 00000000 00000000 00000000 00000000  ................
 195f8 00000000 00000000 00000000 00000000  ................
 19608 00000000 00000000 00000000 00000000  ................
 19618 00000000 00000000 00000000 00000000  ................
 19628 00000000 00000000 00000000 00000000  ................
 19638 00000000 00000000 00000000 00000000  ................
 19648 00000000 00000000 48960100 48960100  ........H...H...
 19658 50960100 50960100 58960100 58960100  P...P...X...X...
 19668 60960100 60960100 68960100 68960100  `...`...h...h...
 19678 70960100 70960100 78960100 78960100  p...p...x...x...
 19688 80960100 80960100 88960100 88960100  ................
 19698 90960100 90960100 98960100 98960100  ................
 196a8 a0960100 a0960100 a8960100 a8960100  ................
 196b8 b0960100 b0960100 b8960100 b8960100  ................
 196c8 c0960100 c0960100 c8960100 c8960100  ................
 196d8 d0960100 d0960100 d8960100 d8960100  ................
 196e8 e0960100 e0960100 e8960100 e8960100  ................
 196f8 f0960100 f0960100 f8960100 f8960100  ................
 19708 00970100 00970100 08970100 08970100  ................
 19718 10970100 10970100 18970100 18970100  ................
 19728 20970100 20970100 28970100 28970100   ... ...(...(...
 19738 30970100 30970100 38970100 38970100  0...0...8...8...
 19748 40970100 40970100 48970100 48970100  @...@...H...H...
 19758 50970100 50970100 58970100 58970100  P...P...X...X...
 19768 60970100 60970100 68970100 68970100  `...`...h...h...
 19778 70970100 70970100 78970100 78970100  p...p...x...x...
 19788 80970100 80970100 88970100 88970100  ................
 19798 90970100 90970100 98970100 98970100  ................
 197a8 a0970100 a0970100 a8970100 a8970100  ................
 197b8 b0970100 b0970100 b8970100 b8970100  ................
 197c8 c0970100 c0970100 c8970100 c8970100  ................
 197d8 d0970100 d0970100 d8970100 d8970100  ................
 197e8 e0970100 e0970100 e8970100 e8970100  ................
 197f8 f0970100 f0970100 f8970100 f8970100  ................
 19808 00980100 00980100 08980100 08980100  ................
 19818 10980100 10980100 18980100 18980100  ................
 19828 20980100 20980100 28980100 28980100   ... ...(...(...
 19838 30980100 30980100 38980100 38980100  0...0...8...8...
 19848 40980100 40980100 48980100 48980100  @...@...H...H...
 19858 50980100 50980100 58980100 58980100  P...P...X...X...
 19868 60980100 60980100 68980100 68980100  `...`...h...h...
 19878 70980100 70980100 78980100 78980100  p...p...x...x...
 19888 80980100 80980100 88980100 88980100  ................
 19898 90980100 90980100 98980100 98980100  ................
 198a8 a0980100 a0980100 a8980100 a8980100  ................
 198b8 b0980100 b0980100 b8980100 b8980100  ................
 198c8 c0980100 c0980100 c8980100 c8980100  ................
 198d8 d0980100 d0980100 d8980100 d8980100  ................
 198e8 e0980100 e0980100 e8980100 e8980100  ................
 198f8 f0980100 f0980100 f8980100 f8980100  ................
 19908 00990100 00990100 08990100 08990100  ................
 19918 10990100 10990100 18990100 18990100  ................
 19928 20990100 20990100 28990100 28990100   ... ...(...(...
 19938 30990100 30990100 38990100 38990100  0...0...8...8...
 19948 40990100 40990100 48990100 48990100  @...@...H...H...
 19958 50990100 50990100 58990100 58990100  P...P...X...X...
 19968 60990100 60990100 68990100 68990100  `...`...h...h...
 19978 70990100 70990100 78990100 78990100  p...p...x...x...
 19988 80990100 80990100 88990100 88990100  ................
 19998 90990100 90990100 98990100 98990100  ................
 199a8 a0990100 a0990100 a8990100 a8990100  ................
 199b8 b0990100 b0990100 b8990100 b8990100  ................
 199c8 c0990100 c0990100 c8990100 c8990100  ................
 199d8 d0990100 d0990100 d8990100 d8990100  ................
 199e8 e0990100 e0990100 e8990100 e8990100  ................
 199f8 f0990100 f0990100 f8990100 f8990100  ................
 19a08 009a0100 009a0100 089a0100 089a0100  ................
 19a18 109a0100 109a0100 189a0100 189a0100  ................
 19a28 209a0100 209a0100 289a0100 289a0100   ... ...(...(...
 19a38 309a0100 309a0100 389a0100 389a0100  0...0...8...8...
 19a48 409a0100 409a0100 ffffffff 00000200  @...@...........
 19a58 e49a0100                             ....            
Contents of section .comment:
 0000 4743433a 2028474e 5520546f 6f6c7320  GCC: (GNU Tools 
 0010 666f7220 41726d20 456d6265 64646564  for Arm Embedded
 0020 2050726f 63657373 6f727320 392d3230   Processors 9-20
 0030 31392d71 342d6d61 6a6f7229 20392e32  19-q4-major) 9.2
 0040 2e312032 30313931 30323520 2872656c  .1 20191025 (rel
 0050 65617365 29205b41 524d2f61 726d2d39  ease) [ARM/arm-9
 0060 2d627261 6e636820 72657669 73696f6e  -branch revision
 0070 20323737 3539395d 00                  277599].       
Contents of section .debug_frame:
 0000 0c000000 ffffffff 0100017c 0e0c0d00  ...........|....
 0010 0c000000 00000000 e1850000 0a010000  ................
 0020 0c000000 ffffffff 0100027c 0e0c0d00  ...........|....
 0030 14000000 20000000 0c800000 20000000  .... ....... ...
 0040 410e0884 028e0100 0c000000 ffffffff  A...............
 0050 0100027c 0e0c0d00 18000000 48000000  ...|........H...
 0060 f8860000 44000000 410e1084 04850386  ....D...A.......
 0070 028e0100 0c000000 ffffffff 0100027c  ...............|
 0080 0e0c0d00 14000000 74000000 3c870000  ........t...<...
 0090 14000000 410e0884 028e0100 14000000  ....A...........
 00a0 74000000 00000000 14000000 410e0884  t...........A...
 00b0 028e0100 0c000000 ffffffff 0100027c  ...............|
 00c0 0e0c0d00 28000000 b4000000 50870000  ....(.......P...
 00d0 80050000 410e1484 05850486 0387028e  ....A...........
 00e0 01450e24 88098908 8a078b06 440e3000  .E.$........D.0.
 00f0 0c000000 ffffffff 0100027c 0e0c0d00  ...........|....
 0100 1c000000 f0000000 d08c0000 a8000000  ................
 0110 410e1484 05850486 0387028e 01000000  A...............
 0120 0c000000 ffffffff 0100027c 0e0c0d00  ...........|....
 0130 14000000 20010000 788d0000 10000000  .... ...x.......
 0140 410e0884 028e0100 14000000 20010000  A........... ...
 0150 888d0000 10000000 410e0884 028e0100  ........A.......
 0160 0c000000 ffffffff 0100027c 0e0c0d00  ...........|....
 0170 18000000 60010000 988d0000 24000000  ....`.......$...
 0180 420e1084 04850386 028e0100 0c000000  B...............
 0190 ffffffff 0100027c 0e0c0d00 14000000  .......|........
 01a0 8c010000 60800000 18000000 420e0884  ....`.......B...
 01b0 028e0100 28000000 8c010000 bc8d0000  ....(...........
 01c0 e4000000 410e1484 05850486 0387028e  ....A...........
 01d0 01450e24 88098908 8a078b06 420e3000  .E.$........B.0.
 01e0 0c000000 ffffffff 0100027c 0e0c0d00  ...........|....
 01f0 14000000 e0010000 a08e0000 10000000  ................
 0200 410e0884 028e0100 0c000000 ffffffff  A...............
 0210 0100027c 0e0c0d00 18000000 08020000  ...|............
 0220 b08e0000 28000000 410e1084 04850386  ....(...A.......
 0230 028e0100 0c000000 ffffffff 0100027c  ...............|
 0240 0e0c0d00 1c000000 34020000 d88e0000  ........4.......
 0250 9c000000 410e1883 06840585 04860387  ....A...........
 0260 028e0100 20000000 34020000 748f0000  .... ...4...t...
 0270 c4010000 410e1484 05850486 0387028e  ....A...........
 0280 01440e18 88060000 0c000000 ffffffff  .D..............
 0290 0100027c 0e0c0d00 0c000000 88020000  ...|............
 02a0 00000000 02000000 0c000000 88020000  ................
 02b0 00000000 02000000 0c000000 88020000  ................
 02c0 00000000 02000000 0c000000 88020000  ................
 02d0 00000000 02000000 0c000000 88020000  ................
 02e0 00000000 02000000 0c000000 88020000  ................
 02f0 38910000 02000000 0c000000 88020000  8...............
 0300 00000000 04000000 0c000000 88020000  ................
 0310 00000000 04000000 0c000000 88020000  ................
 0320 00000000 02000000 0c000000 88020000  ................
 0330 3c910000 02000000 0c000000 ffffffff  <...............
 0340 0100027c 0e0c0d00 18000000 38030000  ...|........8...
 0350 00000000 1a000000 410e1084 04850386  ........A.......
 0360 028e0100 18000000 38030000 00000000  ........8.......
 0370 94000000 420e1084 04850386 028e0100  ....B...........
 0380 0c000000 ffffffff 0100027c 0e0c0d00  ...........|....
 0390 28000000 80030000 40910000 ac000000  (.......@.......
 03a0 410e1484 05850486 0387028e 01440e20  A............D. 
 03b0 88088907 8a06420e 28000000           ......B.(...    
Contents of section .ARM.attributes:
 0000 41270000 00616561 62690001 1d000000  A'...aeabi......
 0010 0536532d 4d00060c 074d0901 12041401  .6S-M....M......
 0020 15011703 18011a01                    ........        

Disassembly of section .init:

00008000 <_init>:
_init():
    8000:	b5f8      	push	{r3, r4, r5, r6, r7, lr}
    8002:	46c0      	nop			; (mov r8, r8)
    8004:	bcf8      	pop	{r3, r4, r5, r6, r7}
    8006:	bc08      	pop	{r3}
    8008:	469e      	mov	lr, r3
    800a:	4770      	bx	lr

Disassembly of section .text:

0000800c <exit>:
exit():
    800c:	b510      	push	{r4, lr}
    800e:	2100      	movs	r1, #0
    8010:	0004      	movs	r4, r0
    8012:	f000 fed3 	bl	8dbc <__call_exitprocs>
    8016:	4b04      	ldr	r3, [pc, #16]	; (8028 <exit+0x1c>)
    8018:	6818      	ldr	r0, [r3, #0]
    801a:	6bc3      	ldr	r3, [r0, #60]	; 0x3c
    801c:	2b00      	cmp	r3, #0
    801e:	d000      	beq.n	8022 <exit+0x16>
    8020:	4798      	blx	r3
    8022:	0020      	movs	r0, r4
    8024:	f000 f95a 	bl	82dc <_exit>
    8028:	000091f8 	.word	0x000091f8

0000802c <main>:
main():
    802c:	b513      	push	{r0, r1, r4, lr}
    802e:	2480      	movs	r4, #128	; 0x80
    8030:	f000 f966 	bl	8300 <setup>
    8034:	0064      	lsls	r4, r4, #1
    8036:	2001      	movs	r0, #1
    8038:	f000 f9ce 	bl	83d8 <initScheduler>
    803c:	0020      	movs	r0, r4
    803e:	4906      	ldr	r1, [pc, #24]	; (8058 <main+0x2c>)
    8040:	f000 fa0e 	bl	8460 <registerTask>
    8044:	2300      	movs	r3, #0
    8046:	0020      	movs	r0, r4
    8048:	4a04      	ldr	r2, [pc, #16]	; (805c <main+0x30>)
    804a:	9300      	str	r3, [sp, #0]
    804c:	2300      	movs	r3, #0
    804e:	f000 fa4b 	bl	84e8 <scheduleTaskOnce>
    8052:	f000 fa7f 	bl	8554 <schedule>
    8056:	46c0      	nop			; (mov r8, r8)
    8058:	00008165 	.word	0x00008165
    805c:	000003b6 	.word	0x000003b6

00008060 <register_fini>:
register_fini():
    8060:	4b03      	ldr	r3, [pc, #12]	; (8070 <register_fini+0x10>)
    8062:	b510      	push	{r4, lr}
    8064:	2b00      	cmp	r3, #0
    8066:	d002      	beq.n	806e <register_fini+0xe>
    8068:	4802      	ldr	r0, [pc, #8]	; (8074 <register_fini+0x14>)
    806a:	f000 ff19 	bl	8ea0 <atexit>
    806e:	bd10      	pop	{r4, pc}
    8070:	00000000 	.word	0x00000000
    8074:	00008eb1 	.word	0x00008eb1

00008078 <__do_global_dtors_aux>:
__do_global_dtors_aux():
    8078:	b510      	push	{r4, lr}
    807a:	4c06      	ldr	r4, [pc, #24]	; (8094 <__do_global_dtors_aux+0x1c>)
    807c:	7823      	ldrb	r3, [r4, #0]
    807e:	2b00      	cmp	r3, #0
    8080:	d107      	bne.n	8092 <__do_global_dtors_aux+0x1a>
    8082:	4b05      	ldr	r3, [pc, #20]	; (8098 <__do_global_dtors_aux+0x20>)
    8084:	2b00      	cmp	r3, #0
    8086:	d002      	beq.n	808e <__do_global_dtors_aux+0x16>
    8088:	4804      	ldr	r0, [pc, #16]	; (809c <__do_global_dtors_aux+0x24>)
    808a:	e000      	b.n	808e <__do_global_dtors_aux+0x16>
    808c:	bf00      	nop
    808e:	2301      	movs	r3, #1
    8090:	7023      	strb	r3, [r4, #0]
    8092:	bd10      	pop	{r4, pc}
    8094:	00019a60 	.word	0x00019a60
    8098:	00000000 	.word	0x00000000
    809c:	00009204 	.word	0x00009204

000080a0 <frame_dummy>:
frame_dummy():
    80a0:	4b04      	ldr	r3, [pc, #16]	; (80b4 <frame_dummy+0x14>)
    80a2:	b510      	push	{r4, lr}
    80a4:	2b00      	cmp	r3, #0
    80a6:	d003      	beq.n	80b0 <frame_dummy+0x10>
    80a8:	4903      	ldr	r1, [pc, #12]	; (80b8 <frame_dummy+0x18>)
    80aa:	4804      	ldr	r0, [pc, #16]	; (80bc <frame_dummy+0x1c>)
    80ac:	e000      	b.n	80b0 <frame_dummy+0x10>
    80ae:	bf00      	nop
    80b0:	bd10      	pop	{r4, pc}
    80b2:	46c0      	nop			; (mov r8, r8)
    80b4:	00000000 	.word	0x00000000
    80b8:	00019a64 	.word	0x00019a64
    80bc:	00009204 	.word	0x00009204

000080c0 <_mainCRTStartup>:
_start():
    80c0:	4b16      	ldr	r3, [pc, #88]	; (811c <_mainCRTStartup+0x5c>)
    80c2:	2b00      	cmp	r3, #0
    80c4:	d100      	bne.n	80c8 <_mainCRTStartup+0x8>
    80c6:	4b14      	ldr	r3, [pc, #80]	; (8118 <_mainCRTStartup+0x58>)
    80c8:	469d      	mov	sp, r3
    80ca:	2240      	movs	r2, #64	; 0x40
    80cc:	0292      	lsls	r2, r2, #10
    80ce:	1a9a      	subs	r2, r3, r2
    80d0:	4692      	mov	sl, r2
    80d2:	2100      	movs	r1, #0
    80d4:	468b      	mov	fp, r1
    80d6:	460f      	mov	r7, r1
    80d8:	4813      	ldr	r0, [pc, #76]	; (8128 <_mainCRTStartup+0x68>)
    80da:	4a14      	ldr	r2, [pc, #80]	; (812c <_mainCRTStartup+0x6c>)
    80dc:	1a12      	subs	r2, r2, r0
    80de:	f000 fdf7 	bl	8cd0 <memset>
    80e2:	4b0f      	ldr	r3, [pc, #60]	; (8120 <_mainCRTStartup+0x60>)
    80e4:	2b00      	cmp	r3, #0
    80e6:	d000      	beq.n	80ea <_mainCRTStartup+0x2a>
    80e8:	4798      	blx	r3
    80ea:	4b0e      	ldr	r3, [pc, #56]	; (8124 <_mainCRTStartup+0x64>)
    80ec:	2b00      	cmp	r3, #0
    80ee:	d000      	beq.n	80f2 <_mainCRTStartup+0x32>
    80f0:	4798      	blx	r3
    80f2:	2000      	movs	r0, #0
    80f4:	2100      	movs	r1, #0
    80f6:	0004      	movs	r4, r0
    80f8:	000d      	movs	r5, r1
    80fa:	480d      	ldr	r0, [pc, #52]	; (8130 <_mainCRTStartup+0x70>)
    80fc:	2800      	cmp	r0, #0
    80fe:	d002      	beq.n	8106 <_mainCRTStartup+0x46>
    8100:	480c      	ldr	r0, [pc, #48]	; (8134 <_mainCRTStartup+0x74>)
    8102:	f000 fecd 	bl	8ea0 <atexit>
    8106:	f000 faf7 	bl	86f8 <__libc_init_array>
    810a:	0020      	movs	r0, r4
    810c:	0029      	movs	r1, r5
    810e:	f7ff ff8d 	bl	802c <main>
    8112:	f7ff ff7b 	bl	800c <exit>
    8116:	46c0      	nop			; (mov r8, r8)
    8118:	00080000 	.word	0x00080000
	...
    8128:	00019a5c 	.word	0x00019a5c
    812c:	00019b0c 	.word	0x00019b0c
    8130:	00008ea1 	.word	0x00008ea1
    8134:	00008eb1 	.word	0x00008eb1

00008138 <setupLEDPin>:
setupLEDPin():
    8138:	2240      	movs	r2, #64	; 0x40
    813a:	4b01      	ldr	r3, [pc, #4]	; (8140 <setupLEDPin+0x8>)
    813c:	601a      	str	r2, [r3, #0]
    813e:	4770      	bx	lr
    8140:	41004408 	.word	0x41004408

00008144 <turnOn>:
turnOn():
    8144:	2301      	movs	r3, #1
    8146:	4083      	lsls	r3, r0
    8148:	4a01      	ldr	r2, [pc, #4]	; (8150 <turnOn+0xc>)
    814a:	6013      	str	r3, [r2, #0]
    814c:	4770      	bx	lr
    814e:	46c0      	nop			; (mov r8, r8)
    8150:	41004418 	.word	0x41004418

00008154 <turnOff>:
turnOff():
    8154:	2301      	movs	r3, #1
    8156:	4083      	lsls	r3, r0
    8158:	4a01      	ldr	r2, [pc, #4]	; (8160 <turnOff+0xc>)
    815a:	6013      	str	r3, [r2, #0]
    815c:	4770      	bx	lr
    815e:	46c0      	nop			; (mov r8, r8)
    8160:	41004414 	.word	0x41004414

00008164 <HeartbeatTask>:
HeartbeatTask():
    8164:	b537      	push	{r0, r1, r2, r4, r5, lr}
    8166:	4c0c      	ldr	r4, [pc, #48]	; (8198 <HeartbeatTask+0x34>)
    8168:	2006      	movs	r0, #6
    816a:	7825      	ldrb	r5, [r4, #0]
    816c:	2d00      	cmp	r5, #0
    816e:	d00b      	beq.n	8188 <HeartbeatTask+0x24>
    8170:	f7ff fff0 	bl	8154 <turnOff>
    8174:	2300      	movs	r3, #0
    8176:	4a09      	ldr	r2, [pc, #36]	; (819c <HeartbeatTask+0x38>)
    8178:	7023      	strb	r3, [r4, #0]
    817a:	9300      	str	r3, [sp, #0]
    817c:	2080      	movs	r0, #128	; 0x80
    817e:	2300      	movs	r3, #0
    8180:	0040      	lsls	r0, r0, #1
    8182:	f000 f9b1 	bl	84e8 <scheduleTaskOnce>
    8186:	bd37      	pop	{r0, r1, r2, r4, r5, pc}
    8188:	f7ff ffdc 	bl	8144 <turnOn>
    818c:	2301      	movs	r3, #1
    818e:	2232      	movs	r2, #50	; 0x32
    8190:	7023      	strb	r3, [r4, #0]
    8192:	9500      	str	r5, [sp, #0]
    8194:	e7f2      	b.n	817c <HeartbeatTask+0x18>
    8196:	46c0      	nop			; (mov r8, r8)
    8198:	00019a7c 	.word	0x00019a7c
    819c:	000003b6 	.word	0x000003b6

000081a0 <setupRTC>:
setupRTC():
    81a0:	21fa      	movs	r1, #250	; 0xfa
    81a2:	4b0d      	ldr	r3, [pc, #52]	; (81d8 <setupRTC+0x38>)
    81a4:	b510      	push	{r4, lr}
    81a6:	6818      	ldr	r0, [r3, #0]
    81a8:	0089      	lsls	r1, r1, #2
    81aa:	f000 fa19 	bl	85e0 <__udivsi3>
    81ae:	2380      	movs	r3, #128	; 0x80
    81b0:	3801      	subs	r0, #1
    81b2:	045b      	lsls	r3, r3, #17
    81b4:	4298      	cmp	r0, r3
    81b6:	d20d      	bcs.n	81d4 <setupRTC+0x34>
    81b8:	21c0      	movs	r1, #192	; 0xc0
    81ba:	4a08      	ldr	r2, [pc, #32]	; (81dc <setupRTC+0x3c>)
    81bc:	0609      	lsls	r1, r1, #24
    81be:	6050      	str	r0, [r2, #4]
    81c0:	4807      	ldr	r0, [pc, #28]	; (81e0 <setupRTC+0x40>)
    81c2:	6a03      	ldr	r3, [r0, #32]
    81c4:	021b      	lsls	r3, r3, #8
    81c6:	0a1b      	lsrs	r3, r3, #8
    81c8:	430b      	orrs	r3, r1
    81ca:	6203      	str	r3, [r0, #32]
    81cc:	2300      	movs	r3, #0
    81ce:	6093      	str	r3, [r2, #8]
    81d0:	3307      	adds	r3, #7
    81d2:	6013      	str	r3, [r2, #0]
    81d4:	bd10      	pop	{r4, pc}
    81d6:	46c0      	nop			; (mov r8, r8)
    81d8:	00019218 	.word	0x00019218
    81dc:	e000e010 	.word	0xe000e010
    81e0:	e000ed00 	.word	0xe000ed00

000081e4 <_handleNoFreeTasks>:
_handleNoFreeTasks():
    81e4:	b570      	push	{r4, r5, r6, lr}
    81e6:	25fa      	movs	r5, #250	; 0xfa
    81e8:	2406      	movs	r4, #6
    81ea:	00ed      	lsls	r5, r5, #3
    81ec:	0020      	movs	r0, r4
    81ee:	f7ff ffa9 	bl	8144 <turnOn>
    81f2:	0028      	movs	r0, r5
    81f4:	f000 f8ba 	bl	836c <delay>
    81f8:	0020      	movs	r0, r4
    81fa:	f7ff ffab 	bl	8154 <turnOff>
    81fe:	20fa      	movs	r0, #250	; 0xfa
    8200:	0040      	lsls	r0, r0, #1
    8202:	f000 f8b3 	bl	836c <delay>
    8206:	e7f1      	b.n	81ec <_handleNoFreeTasks+0x8>

00008208 <_handleTaskCountOverFlow>:
_handleTaskCountOverFlow():
    8208:	b570      	push	{r4, r5, r6, lr}
    820a:	25fa      	movs	r5, #250	; 0xfa
    820c:	2406      	movs	r4, #6
    820e:	00ad      	lsls	r5, r5, #2
    8210:	0020      	movs	r0, r4
    8212:	f7ff ff97 	bl	8144 <turnOn>
    8216:	0028      	movs	r0, r5
    8218:	f000 f8a8 	bl	836c <delay>
    821c:	0020      	movs	r0, r4
    821e:	f7ff ff99 	bl	8154 <turnOff>
    8222:	2096      	movs	r0, #150	; 0x96
    8224:	f000 f8a2 	bl	836c <delay>
    8228:	e7f2      	b.n	8210 <_handleTaskCountOverFlow+0x8>

0000822a <_handleNullTask>:
_handleNullTask():
    822a:	b570      	push	{r4, r5, r6, lr}
    822c:	25fa      	movs	r5, #250	; 0xfa
    822e:	2406      	movs	r4, #6
    8230:	00ad      	lsls	r5, r5, #2
    8232:	0020      	movs	r0, r4
    8234:	f7ff ff86 	bl	8144 <turnOn>
    8238:	2064      	movs	r0, #100	; 0x64
    823a:	f000 f897 	bl	836c <delay>
    823e:	0020      	movs	r0, r4
    8240:	f7ff ff88 	bl	8154 <turnOff>
    8244:	0028      	movs	r0, r5
    8246:	f000 f891 	bl	836c <delay>
    824a:	e7f2      	b.n	8232 <_handleNullTask+0x8>

0000824c <_handleNullTaskExec>:
_handleNullTaskExec():
    824c:	b570      	push	{r4, r5, r6, lr}
    824e:	25fa      	movs	r5, #250	; 0xfa
    8250:	2406      	movs	r4, #6
    8252:	006d      	lsls	r5, r5, #1
    8254:	0020      	movs	r0, r4
    8256:	f7ff ff75 	bl	8144 <turnOn>
    825a:	2032      	movs	r0, #50	; 0x32
    825c:	f000 f886 	bl	836c <delay>
    8260:	0020      	movs	r0, r4
    8262:	f7ff ff77 	bl	8154 <turnOff>
    8266:	0028      	movs	r0, r5
    8268:	f000 f880 	bl	836c <delay>
    826c:	e7f2      	b.n	8254 <_handleNullTaskExec+0x8>

0000826e <_handleDropout>:
_handleDropout():
    826e:	b570      	push	{r4, r5, r6, lr}
    8270:	2506      	movs	r5, #6
    8272:	2432      	movs	r4, #50	; 0x32
    8274:	0028      	movs	r0, r5
    8276:	f7ff ff65 	bl	8144 <turnOn>
    827a:	0020      	movs	r0, r4
    827c:	f000 f876 	bl	836c <delay>
    8280:	0028      	movs	r0, r5
    8282:	f7ff ff67 	bl	8154 <turnOff>
    8286:	0020      	movs	r0, r4
    8288:	f000 f870 	bl	836c <delay>
    828c:	e7f2      	b.n	8274 <_handleDropout+0x6>

0000828e <_handleDefault>:
_handleDefault():
    828e:	b570      	push	{r4, r5, r6, lr}
    8290:	2506      	movs	r5, #6
    8292:	2464      	movs	r4, #100	; 0x64
    8294:	0028      	movs	r0, r5
    8296:	f7ff ff55 	bl	8144 <turnOn>
    829a:	0020      	movs	r0, r4
    829c:	f000 f866 	bl	836c <delay>
    82a0:	0028      	movs	r0, r5
    82a2:	f7ff ff57 	bl	8154 <turnOff>
    82a6:	0020      	movs	r0, r4
    82a8:	f000 f860 	bl	836c <delay>
    82ac:	e7f2      	b.n	8294 <_handleDefault+0x6>

000082ae <handleError>:
handleError():
    82ae:	b510      	push	{r4, lr}
    82b0:	b672      	cpsid	i
    82b2:	3801      	subs	r0, #1
    82b4:	38ff      	subs	r0, #255	; 0xff
    82b6:	2804      	cmp	r0, #4
    82b8:	d80e      	bhi.n	82d8 <handleError+0x2a>
    82ba:	f000 f987 	bl	85cc <__gnu_thumb1_case_uqi>
    82be:	0503      	.short	0x0503
    82c0:	0907      	.short	0x0907
    82c2:	0b          	.byte	0x0b
    82c3:	00          	.byte	0x00
    82c4:	f7ff ff8e 	bl	81e4 <_handleNoFreeTasks>
    82c8:	f7ff ff9e 	bl	8208 <_handleTaskCountOverFlow>
    82cc:	f7ff ffad 	bl	822a <_handleNullTask>
    82d0:	f7ff ffcd 	bl	826e <_handleDropout>
    82d4:	f7ff ffba 	bl	824c <_handleNullTaskExec>
    82d8:	f7ff ffd9 	bl	828e <_handleDefault>

000082dc <_exit>:
_exit():
    82dc:	e7fe      	b.n	82dc <_exit>
	...

000082e0 <_sbrk>:
_sbrk():
    82e0:	4a05      	ldr	r2, [pc, #20]	; (82f8 <_sbrk+0x18>)
    82e2:	0003      	movs	r3, r0
    82e4:	6811      	ldr	r1, [r2, #0]
    82e6:	2900      	cmp	r1, #0
    82e8:	d101      	bne.n	82ee <_sbrk+0xe>
    82ea:	4904      	ldr	r1, [pc, #16]	; (82fc <_sbrk+0x1c>)
    82ec:	6011      	str	r1, [r2, #0]
    82ee:	6810      	ldr	r0, [r2, #0]
    82f0:	18c3      	adds	r3, r0, r3
    82f2:	6013      	str	r3, [r2, #0]
    82f4:	4770      	bx	lr
    82f6:	46c0      	nop			; (mov r8, r8)
    82f8:	00019a80 	.word	0x00019a80
    82fc:	00019b0c 	.word	0x00019b0c

00008300 <setup>:
setup():
    8300:	b510      	push	{r4, lr}
    8302:	f7ff ff19 	bl	8138 <setupLEDPin>
    8306:	f7ff ff4b 	bl	81a0 <setupRTC>
    830a:	bd10      	pop	{r4, pc}

0000830c <micros>:
micros():
    830c:	b5f7      	push	{r0, r1, r2, r4, r5, r6, r7, lr}
    830e:	4813      	ldr	r0, [pc, #76]	; (835c <micros+0x50>)
    8310:	2201      	movs	r2, #1
    8312:	4684      	mov	ip, r0
    8314:	4912      	ldr	r1, [pc, #72]	; (8360 <micros+0x54>)
    8316:	4c13      	ldr	r4, [pc, #76]	; (8364 <micros+0x58>)
    8318:	688e      	ldr	r6, [r1, #8]
    831a:	6863      	ldr	r3, [r4, #4]
    831c:	6805      	ldr	r5, [r0, #0]
    831e:	0e9b      	lsrs	r3, r3, #26
    8320:	4013      	ands	r3, r2
    8322:	9201      	str	r2, [sp, #4]
    8324:	6888      	ldr	r0, [r1, #8]
    8326:	6862      	ldr	r2, [r4, #4]
    8328:	9f01      	ldr	r7, [sp, #4]
    832a:	0e92      	lsrs	r2, r2, #26
    832c:	403a      	ands	r2, r7
    832e:	4667      	mov	r7, ip
    8330:	683f      	ldr	r7, [r7, #0]
    8332:	4293      	cmp	r3, r2
    8334:	d10e      	bne.n	8354 <micros+0x48>
    8336:	42bd      	cmp	r5, r7
    8338:	d10c      	bne.n	8354 <micros+0x48>
    833a:	4286      	cmp	r6, r0
    833c:	d30a      	bcc.n	8354 <micros+0x48>
    833e:	195b      	adds	r3, r3, r5
    8340:	25fa      	movs	r5, #250	; 0xfa
    8342:	6848      	ldr	r0, [r1, #4]
    8344:	00ad      	lsls	r5, r5, #2
    8346:	1b86      	subs	r6, r0, r6
    8348:	4807      	ldr	r0, [pc, #28]	; (8368 <micros+0x5c>)
    834a:	436b      	muls	r3, r5
    834c:	4370      	muls	r0, r6
    834e:	0d00      	lsrs	r0, r0, #20
    8350:	18c0      	adds	r0, r0, r3
    8352:	bdfe      	pop	{r1, r2, r3, r4, r5, r6, r7, pc}
    8354:	003d      	movs	r5, r7
    8356:	0013      	movs	r3, r2
    8358:	0006      	movs	r6, r0
    835a:	e7e3      	b.n	8324 <micros+0x18>
    835c:	00019a84 	.word	0x00019a84
    8360:	e000e010 	.word	0xe000e010
    8364:	e000ed00 	.word	0xe000ed00
    8368:	00005555 	.word	0x00005555

0000836c <delay>:
delay():
    836c:	b570      	push	{r4, r5, r6, lr}
    836e:	1e04      	subs	r4, r0, #0
    8370:	d011      	beq.n	8396 <delay+0x2a>
    8372:	f7ff ffcb 	bl	830c <micros>
    8376:	26fa      	movs	r6, #250	; 0xfa
    8378:	0005      	movs	r5, r0
    837a:	00b6      	lsls	r6, r6, #2
    837c:	f000 f80c 	bl	8398 <yield>
    8380:	f7ff ffc4 	bl	830c <micros>
    8384:	1b40      	subs	r0, r0, r5
    8386:	42b0      	cmp	r0, r6
    8388:	d3f8      	bcc.n	837c <delay+0x10>
    838a:	23fa      	movs	r3, #250	; 0xfa
    838c:	3c01      	subs	r4, #1
    838e:	009b      	lsls	r3, r3, #2
    8390:	18ed      	adds	r5, r5, r3
    8392:	2c00      	cmp	r4, #0
    8394:	d1f4      	bne.n	8380 <delay+0x14>
    8396:	bd70      	pop	{r4, r5, r6, pc}

00008398 <yield>:
yield():
    8398:	4770      	bx	lr
	...

0000839c <_findTaskByID>:
_findTaskByID():
    839c:	0001      	movs	r1, r0
    839e:	2000      	movs	r0, #0
    83a0:	0002      	movs	r2, r0
    83a2:	4b08      	ldr	r3, [pc, #32]	; (83c4 <_findTaskByID+0x28>)
    83a4:	b530      	push	{r4, r5, lr}
    83a6:	681c      	ldr	r4, [r3, #0]
    83a8:	4b07      	ldr	r3, [pc, #28]	; (83c8 <_findTaskByID+0x2c>)
    83aa:	681b      	ldr	r3, [r3, #0]
    83ac:	4294      	cmp	r4, r2
    83ae:	dc00      	bgt.n	83b2 <_findTaskByID+0x16>
    83b0:	bd30      	pop	{r4, r5, pc}
    83b2:	0018      	movs	r0, r3
    83b4:	3338      	adds	r3, #56	; 0x38
    83b6:	001d      	movs	r5, r3
    83b8:	3d38      	subs	r5, #56	; 0x38
    83ba:	882d      	ldrh	r5, [r5, #0]
    83bc:	428d      	cmp	r5, r1
    83be:	d0f7      	beq.n	83b0 <_findTaskByID+0x14>
    83c0:	3201      	adds	r2, #1
    83c2:	e7f3      	b.n	83ac <_findTaskByID+0x10>
    83c4:	00019ae0 	.word	0x00019ae0
    83c8:	00019adc 	.word	0x00019adc

000083cc <_nullTask>:
_nullTask():
    83cc:	2082      	movs	r0, #130	; 0x82
    83ce:	b510      	push	{r4, lr}
    83d0:	0040      	lsls	r0, r0, #1
    83d2:	f7ff ff6c 	bl	82ae <handleError>
    83d6:	bd10      	pop	{r4, pc}

000083d8 <initScheduler>:
initScheduler():
    83d8:	1e43      	subs	r3, r0, #1
    83da:	b5f7      	push	{r0, r1, r2, r4, r5, r6, r7, lr}
    83dc:	4c1c      	ldr	r4, [pc, #112]	; (8450 <initScheduler+0x78>)
    83de:	2b0f      	cmp	r3, #15
    83e0:	d91e      	bls.n	8420 <initScheduler+0x48>
    83e2:	2310      	movs	r3, #16
    83e4:	6023      	str	r3, [r4, #0]
    83e6:	2038      	movs	r0, #56	; 0x38
    83e8:	6823      	ldr	r3, [r4, #0]
    83ea:	4358      	muls	r0, r3
    83ec:	f000 f9a6 	bl	873c <malloc>
    83f0:	4d18      	ldr	r5, [pc, #96]	; (8454 <initScheduler+0x7c>)
    83f2:	6028      	str	r0, [r5, #0]
    83f4:	2800      	cmp	r0, #0
    83f6:	d103      	bne.n	8400 <initScheduler+0x28>
    83f8:	2002      	movs	r0, #2
    83fa:	30ff      	adds	r0, #255	; 0xff
    83fc:	f7ff ff57 	bl	82ae <handleError>
    8400:	2200      	movs	r2, #0
    8402:	4b15      	ldr	r3, [pc, #84]	; (8458 <initScheduler+0x80>)
    8404:	0011      	movs	r1, r2
    8406:	601a      	str	r2, [r3, #0]
    8408:	6823      	ldr	r3, [r4, #0]
    840a:	2738      	movs	r7, #56	; 0x38
    840c:	9301      	str	r3, [sp, #4]
    840e:	682b      	ldr	r3, [r5, #0]
    8410:	2400      	movs	r4, #0
    8412:	001e      	movs	r6, r3
    8414:	2500      	movs	r5, #0
    8416:	3621      	adds	r6, #33	; 0x21
    8418:	9801      	ldr	r0, [sp, #4]
    841a:	4290      	cmp	r0, r2
    841c:	dc02      	bgt.n	8424 <initScheduler+0x4c>
    841e:	bdf7      	pop	{r0, r1, r2, r4, r5, r6, r7, pc}
    8420:	6020      	str	r0, [r4, #0]
    8422:	e7e0      	b.n	83e6 <initScheduler+0xe>
    8424:	1c58      	adds	r0, r3, #1
    8426:	609c      	str	r4, [r3, #8]
    8428:	60dd      	str	r5, [r3, #12]
    842a:	611c      	str	r4, [r3, #16]
    842c:	615d      	str	r5, [r3, #20]
    842e:	619c      	str	r4, [r3, #24]
    8430:	61dd      	str	r5, [r3, #28]
    8432:	8019      	strh	r1, [r3, #0]
    8434:	77c1      	strb	r1, [r0, #31]
    8436:	0038      	movs	r0, r7
    8438:	4350      	muls	r0, r2
    843a:	5431      	strb	r1, [r6, r0]
    843c:	1cd8      	adds	r0, r3, #3
    843e:	77c1      	strb	r1, [r0, #31]
    8440:	4806      	ldr	r0, [pc, #24]	; (845c <initScheduler+0x84>)
    8442:	6259      	str	r1, [r3, #36]	; 0x24
    8444:	6298      	str	r0, [r3, #40]	; 0x28
    8446:	62d9      	str	r1, [r3, #44]	; 0x2c
    8448:	6319      	str	r1, [r3, #48]	; 0x30
    844a:	3201      	adds	r2, #1
    844c:	3338      	adds	r3, #56	; 0x38
    844e:	e7e3      	b.n	8418 <initScheduler+0x40>
    8450:	00019ae0 	.word	0x00019ae0
    8454:	00019adc 	.word	0x00019adc
    8458:	00019aa4 	.word	0x00019aa4
    845c:	000083cd 	.word	0x000083cd

00008460 <registerTask>:
registerTask():
    8460:	b5f8      	push	{r3, r4, r5, r6, r7, lr}
    8462:	2500      	movs	r5, #0
    8464:	4b1b      	ldr	r3, [pc, #108]	; (84d4 <registerTask+0x74>)
    8466:	4c1c      	ldr	r4, [pc, #112]	; (84d8 <registerTask+0x78>)
    8468:	681a      	ldr	r2, [r3, #0]
    846a:	6826      	ldr	r6, [r4, #0]
    846c:	3221      	adds	r2, #33	; 0x21
    846e:	42ae      	cmp	r6, r5
    8470:	dc04      	bgt.n	847c <registerTask+0x1c>
    8472:	2080      	movs	r0, #128	; 0x80
    8474:	0040      	lsls	r0, r0, #1
    8476:	f7ff ff1a 	bl	82ae <handleError>
    847a:	e01a      	b.n	84b2 <registerTask+0x52>
    847c:	0013      	movs	r3, r2
    847e:	3238      	adds	r2, #56	; 0x38
    8480:	0017      	movs	r7, r2
    8482:	3f38      	subs	r7, #56	; 0x38
    8484:	783f      	ldrb	r7, [r7, #0]
    8486:	3b21      	subs	r3, #33	; 0x21
    8488:	2f00      	cmp	r7, #0
    848a:	d121      	bne.n	84d0 <registerTask+0x70>
    848c:	8018      	strh	r0, [r3, #0]
    848e:	2001      	movs	r0, #1
    8490:	1c9a      	adds	r2, r3, #2
    8492:	77d0      	strb	r0, [r2, #31]
    8494:	6299      	str	r1, [r3, #40]	; 0x28
    8496:	4911      	ldr	r1, [pc, #68]	; (84dc <registerTask+0x7c>)
    8498:	680a      	ldr	r2, [r1, #0]
    849a:	1812      	adds	r2, r2, r0
    849c:	600a      	str	r2, [r1, #0]
    849e:	4a10      	ldr	r2, [pc, #64]	; (84e0 <registerTask+0x80>)
    84a0:	4810      	ldr	r0, [pc, #64]	; (84e4 <registerTask+0x84>)
    84a2:	6811      	ldr	r1, [r2, #0]
    84a4:	2900      	cmp	r1, #0
    84a6:	d00e      	beq.n	84c6 <registerTask+0x66>
    84a8:	6800      	ldr	r0, [r0, #0]
    84aa:	6319      	str	r1, [r3, #48]	; 0x30
    84ac:	62d8      	str	r0, [r3, #44]	; 0x2c
    84ae:	6013      	str	r3, [r2, #0]
    84b0:	62cb      	str	r3, [r1, #44]	; 0x2c
    84b2:	4b0a      	ldr	r3, [pc, #40]	; (84dc <registerTask+0x7c>)
    84b4:	681a      	ldr	r2, [r3, #0]
    84b6:	6823      	ldr	r3, [r4, #0]
    84b8:	429a      	cmp	r2, r3
    84ba:	dd03      	ble.n	84c4 <registerTask+0x64>
    84bc:	2002      	movs	r0, #2
    84be:	30ff      	adds	r0, #255	; 0xff
    84c0:	f7ff fef5 	bl	82ae <handleError>
    84c4:	bdf8      	pop	{r3, r4, r5, r6, r7, pc}
    84c6:	6013      	str	r3, [r2, #0]
    84c8:	6003      	str	r3, [r0, #0]
    84ca:	62db      	str	r3, [r3, #44]	; 0x2c
    84cc:	631b      	str	r3, [r3, #48]	; 0x30
    84ce:	e7f0      	b.n	84b2 <registerTask+0x52>
    84d0:	3501      	adds	r5, #1
    84d2:	e7cc      	b.n	846e <registerTask+0xe>
    84d4:	00019adc 	.word	0x00019adc
    84d8:	00019ae0 	.word	0x00019ae0
    84dc:	00019aa4 	.word	0x00019aa4
    84e0:	00019aa0 	.word	0x00019aa0
    84e4:	00019a9c 	.word	0x00019a9c

000084e8 <scheduleTaskOnce>:
scheduleTaskOnce():
    84e8:	b570      	push	{r4, r5, r6, lr}
    84ea:	0014      	movs	r4, r2
    84ec:	001d      	movs	r5, r3
    84ee:	f7ff ff55 	bl	839c <_findTaskByID>
    84f2:	2800      	cmp	r0, #0
    84f4:	d012      	beq.n	851c <scheduleTaskOnce+0x34>
    84f6:	4b0a      	ldr	r3, [pc, #40]	; (8520 <scheduleTaskOnce+0x38>)
    84f8:	6184      	str	r4, [r0, #24]
    84fa:	61c5      	str	r5, [r0, #28]
    84fc:	681a      	ldr	r2, [r3, #0]
    84fe:	685b      	ldr	r3, [r3, #4]
    8500:	6082      	str	r2, [r0, #8]
    8502:	60c3      	str	r3, [r0, #12]
    8504:	18a4      	adds	r4, r4, r2
    8506:	415d      	adcs	r5, r3
    8508:	2201      	movs	r2, #1
    850a:	1c43      	adds	r3, r0, #1
    850c:	6104      	str	r4, [r0, #16]
    850e:	6145      	str	r5, [r0, #20]
    8510:	77da      	strb	r2, [r3, #31]
    8512:	2200      	movs	r2, #0
    8514:	1cc3      	adds	r3, r0, #3
    8516:	77da      	strb	r2, [r3, #31]
    8518:	9b04      	ldr	r3, [sp, #16]
    851a:	6243      	str	r3, [r0, #36]	; 0x24
    851c:	bd70      	pop	{r4, r5, r6, pc}
    851e:	46c0      	nop			; (mov r8, r8)
    8520:	00019a90 	.word	0x00019a90

00008524 <rescheduleTask>:
rescheduleTask():
    8524:	b570      	push	{r4, r5, r6, lr}
    8526:	000c      	movs	r4, r1
    8528:	f7ff ff38 	bl	839c <_findTaskByID>
    852c:	2800      	cmp	r0, #0
    852e:	d00e      	beq.n	854e <rescheduleTask+0x2a>
    8530:	6985      	ldr	r5, [r0, #24]
    8532:	69c6      	ldr	r6, [r0, #28]
    8534:	4b06      	ldr	r3, [pc, #24]	; (8550 <rescheduleTask+0x2c>)
    8536:	681a      	ldr	r2, [r3, #0]
    8538:	685b      	ldr	r3, [r3, #4]
    853a:	6082      	str	r2, [r0, #8]
    853c:	60c3      	str	r3, [r0, #12]
    853e:	1952      	adds	r2, r2, r5
    8540:	4173      	adcs	r3, r6
    8542:	6102      	str	r2, [r0, #16]
    8544:	6143      	str	r3, [r0, #20]
    8546:	2201      	movs	r2, #1
    8548:	1c43      	adds	r3, r0, #1
    854a:	77da      	strb	r2, [r3, #31]
    854c:	6244      	str	r4, [r0, #36]	; 0x24
    854e:	bd70      	pop	{r4, r5, r6, pc}
    8550:	00019a90 	.word	0x00019a90

00008554 <schedule>:
schedule():
    8554:	4b18      	ldr	r3, [pc, #96]	; (85b8 <schedule+0x64>)
    8556:	b570      	push	{r4, r5, r6, lr}
    8558:	681c      	ldr	r4, [r3, #0]
    855a:	2c00      	cmp	r4, #0
    855c:	d100      	bne.n	8560 <schedule+0xc>
    855e:	e7fe      	b.n	855e <schedule+0xa>
    8560:	4a16      	ldr	r2, [pc, #88]	; (85bc <schedule+0x68>)
    8562:	1c65      	adds	r5, r4, #1
    8564:	6813      	ldr	r3, [r2, #0]
    8566:	3301      	adds	r3, #1
    8568:	6013      	str	r3, [r2, #0]
    856a:	7feb      	ldrb	r3, [r5, #31]
    856c:	2b00      	cmp	r3, #0
    856e:	d021      	beq.n	85b4 <schedule+0x60>
    8570:	4b13      	ldr	r3, [pc, #76]	; (85c0 <schedule+0x6c>)
    8572:	6961      	ldr	r1, [r4, #20]
    8574:	681a      	ldr	r2, [r3, #0]
    8576:	685b      	ldr	r3, [r3, #4]
    8578:	4299      	cmp	r1, r3
    857a:	d81b      	bhi.n	85b4 <schedule+0x60>
    857c:	d102      	bne.n	8584 <schedule+0x30>
    857e:	6921      	ldr	r1, [r4, #16]
    8580:	4291      	cmp	r1, r2
    8582:	d817      	bhi.n	85b4 <schedule+0x60>
    8584:	2300      	movs	r3, #0
    8586:	4a0f      	ldr	r2, [pc, #60]	; (85c4 <schedule+0x70>)
    8588:	77eb      	strb	r3, [r5, #31]
    858a:	6813      	ldr	r3, [r2, #0]
    858c:	6a60      	ldr	r0, [r4, #36]	; 0x24
    858e:	3301      	adds	r3, #1
    8590:	6013      	str	r3, [r2, #0]
    8592:	6aa3      	ldr	r3, [r4, #40]	; 0x28
    8594:	4798      	blx	r3
    8596:	1ce3      	adds	r3, r4, #3
    8598:	7fdb      	ldrb	r3, [r3, #31]
    859a:	2b00      	cmp	r3, #0
    859c:	d006      	beq.n	85ac <schedule+0x58>
    859e:	7feb      	ldrb	r3, [r5, #31]
    85a0:	2b00      	cmp	r3, #0
    85a2:	d103      	bne.n	85ac <schedule+0x58>
    85a4:	8820      	ldrh	r0, [r4, #0]
    85a6:	6a61      	ldr	r1, [r4, #36]	; 0x24
    85a8:	f7ff ffbc 	bl	8524 <rescheduleTask>
    85ac:	4a06      	ldr	r2, [pc, #24]	; (85c8 <schedule+0x74>)
    85ae:	6813      	ldr	r3, [r2, #0]
    85b0:	3301      	adds	r3, #1
    85b2:	6013      	str	r3, [r2, #0]
    85b4:	6ae4      	ldr	r4, [r4, #44]	; 0x2c
    85b6:	e7d3      	b.n	8560 <schedule+0xc>
    85b8:	00019a9c 	.word	0x00019a9c
    85bc:	00019a8c 	.word	0x00019a8c
    85c0:	00019a90 	.word	0x00019a90
    85c4:	00019a88 	.word	0x00019a88
    85c8:	00019a98 	.word	0x00019a98

000085cc <__gnu_thumb1_case_uqi>:
__gnu_thumb1_case_uqi():
    85cc:	b402      	push	{r1}
    85ce:	4671      	mov	r1, lr
    85d0:	0849      	lsrs	r1, r1, #1
    85d2:	0049      	lsls	r1, r1, #1
    85d4:	5c09      	ldrb	r1, [r1, r0]
    85d6:	0049      	lsls	r1, r1, #1
    85d8:	448e      	add	lr, r1
    85da:	bc02      	pop	{r1}
    85dc:	4770      	bx	lr
    85de:	46c0      	nop			; (mov r8, r8)

000085e0 <__udivsi3>:
__aeabi_uidiv():
    85e0:	2200      	movs	r2, #0
    85e2:	0843      	lsrs	r3, r0, #1
    85e4:	428b      	cmp	r3, r1
    85e6:	d374      	bcc.n	86d2 <__udivsi3+0xf2>
    85e8:	0903      	lsrs	r3, r0, #4
    85ea:	428b      	cmp	r3, r1
    85ec:	d35f      	bcc.n	86ae <__udivsi3+0xce>
    85ee:	0a03      	lsrs	r3, r0, #8
    85f0:	428b      	cmp	r3, r1
    85f2:	d344      	bcc.n	867e <__udivsi3+0x9e>
    85f4:	0b03      	lsrs	r3, r0, #12
    85f6:	428b      	cmp	r3, r1
    85f8:	d328      	bcc.n	864c <__udivsi3+0x6c>
    85fa:	0c03      	lsrs	r3, r0, #16
    85fc:	428b      	cmp	r3, r1
    85fe:	d30d      	bcc.n	861c <__udivsi3+0x3c>
    8600:	22ff      	movs	r2, #255	; 0xff
    8602:	0209      	lsls	r1, r1, #8
    8604:	ba12      	rev	r2, r2
    8606:	0c03      	lsrs	r3, r0, #16
    8608:	428b      	cmp	r3, r1
    860a:	d302      	bcc.n	8612 <__udivsi3+0x32>
    860c:	1212      	asrs	r2, r2, #8
    860e:	0209      	lsls	r1, r1, #8
    8610:	d065      	beq.n	86de <__udivsi3+0xfe>
    8612:	0b03      	lsrs	r3, r0, #12
    8614:	428b      	cmp	r3, r1
    8616:	d319      	bcc.n	864c <__udivsi3+0x6c>
    8618:	e000      	b.n	861c <__udivsi3+0x3c>
    861a:	0a09      	lsrs	r1, r1, #8
    861c:	0bc3      	lsrs	r3, r0, #15
    861e:	428b      	cmp	r3, r1
    8620:	d301      	bcc.n	8626 <__udivsi3+0x46>
    8622:	03cb      	lsls	r3, r1, #15
    8624:	1ac0      	subs	r0, r0, r3
    8626:	4152      	adcs	r2, r2
    8628:	0b83      	lsrs	r3, r0, #14
    862a:	428b      	cmp	r3, r1
    862c:	d301      	bcc.n	8632 <__udivsi3+0x52>
    862e:	038b      	lsls	r3, r1, #14
    8630:	1ac0      	subs	r0, r0, r3
    8632:	4152      	adcs	r2, r2
    8634:	0b43      	lsrs	r3, r0, #13
    8636:	428b      	cmp	r3, r1
    8638:	d301      	bcc.n	863e <__udivsi3+0x5e>
    863a:	034b      	lsls	r3, r1, #13
    863c:	1ac0      	subs	r0, r0, r3
    863e:	4152      	adcs	r2, r2
    8640:	0b03      	lsrs	r3, r0, #12
    8642:	428b      	cmp	r3, r1
    8644:	d301      	bcc.n	864a <__udivsi3+0x6a>
    8646:	030b      	lsls	r3, r1, #12
    8648:	1ac0      	subs	r0, r0, r3
    864a:	4152      	adcs	r2, r2
    864c:	0ac3      	lsrs	r3, r0, #11
    864e:	428b      	cmp	r3, r1
    8650:	d301      	bcc.n	8656 <__udivsi3+0x76>
    8652:	02cb      	lsls	r3, r1, #11
    8654:	1ac0      	subs	r0, r0, r3
    8656:	4152      	adcs	r2, r2
    8658:	0a83      	lsrs	r3, r0, #10
    865a:	428b      	cmp	r3, r1
    865c:	d301      	bcc.n	8662 <__udivsi3+0x82>
    865e:	028b      	lsls	r3, r1, #10
    8660:	1ac0      	subs	r0, r0, r3
    8662:	4152      	adcs	r2, r2
    8664:	0a43      	lsrs	r3, r0, #9
    8666:	428b      	cmp	r3, r1
    8668:	d301      	bcc.n	866e <__udivsi3+0x8e>
    866a:	024b      	lsls	r3, r1, #9
    866c:	1ac0      	subs	r0, r0, r3
    866e:	4152      	adcs	r2, r2
    8670:	0a03      	lsrs	r3, r0, #8
    8672:	428b      	cmp	r3, r1
    8674:	d301      	bcc.n	867a <__udivsi3+0x9a>
    8676:	020b      	lsls	r3, r1, #8
    8678:	1ac0      	subs	r0, r0, r3
    867a:	4152      	adcs	r2, r2
    867c:	d2cd      	bcs.n	861a <__udivsi3+0x3a>
    867e:	09c3      	lsrs	r3, r0, #7
    8680:	428b      	cmp	r3, r1
    8682:	d301      	bcc.n	8688 <__udivsi3+0xa8>
    8684:	01cb      	lsls	r3, r1, #7
    8686:	1ac0      	subs	r0, r0, r3
    8688:	4152      	adcs	r2, r2
    868a:	0983      	lsrs	r3, r0, #6
    868c:	428b      	cmp	r3, r1
    868e:	d301      	bcc.n	8694 <__udivsi3+0xb4>
    8690:	018b      	lsls	r3, r1, #6
    8692:	1ac0      	subs	r0, r0, r3
    8694:	4152      	adcs	r2, r2
    8696:	0943      	lsrs	r3, r0, #5
    8698:	428b      	cmp	r3, r1
    869a:	d301      	bcc.n	86a0 <__udivsi3+0xc0>
    869c:	014b      	lsls	r3, r1, #5
    869e:	1ac0      	subs	r0, r0, r3
    86a0:	4152      	adcs	r2, r2
    86a2:	0903      	lsrs	r3, r0, #4
    86a4:	428b      	cmp	r3, r1
    86a6:	d301      	bcc.n	86ac <__udivsi3+0xcc>
    86a8:	010b      	lsls	r3, r1, #4
    86aa:	1ac0      	subs	r0, r0, r3
    86ac:	4152      	adcs	r2, r2
    86ae:	08c3      	lsrs	r3, r0, #3
    86b0:	428b      	cmp	r3, r1
    86b2:	d301      	bcc.n	86b8 <__udivsi3+0xd8>
    86b4:	00cb      	lsls	r3, r1, #3
    86b6:	1ac0      	subs	r0, r0, r3
    86b8:	4152      	adcs	r2, r2
    86ba:	0883      	lsrs	r3, r0, #2
    86bc:	428b      	cmp	r3, r1
    86be:	d301      	bcc.n	86c4 <__udivsi3+0xe4>
    86c0:	008b      	lsls	r3, r1, #2
    86c2:	1ac0      	subs	r0, r0, r3
    86c4:	4152      	adcs	r2, r2
    86c6:	0843      	lsrs	r3, r0, #1
    86c8:	428b      	cmp	r3, r1
    86ca:	d301      	bcc.n	86d0 <__udivsi3+0xf0>
    86cc:	004b      	lsls	r3, r1, #1
    86ce:	1ac0      	subs	r0, r0, r3
    86d0:	4152      	adcs	r2, r2
    86d2:	1a41      	subs	r1, r0, r1
    86d4:	d200      	bcs.n	86d8 <__udivsi3+0xf8>
    86d6:	4601      	mov	r1, r0
    86d8:	4152      	adcs	r2, r2
    86da:	4610      	mov	r0, r2
    86dc:	4770      	bx	lr
    86de:	e7ff      	b.n	86e0 <__udivsi3+0x100>
    86e0:	b501      	push	{r0, lr}
    86e2:	2000      	movs	r0, #0
    86e4:	f000 f806 	bl	86f4 <__aeabi_idiv0>
    86e8:	bd02      	pop	{r1, pc}
    86ea:	46c0      	nop			; (mov r8, r8)

000086ec <__aeabi_uidivmod>:
__aeabi_uidivmod():
    86ec:	2900      	cmp	r1, #0
    86ee:	d0f7      	beq.n	86e0 <__udivsi3+0x100>
    86f0:	e776      	b.n	85e0 <__udivsi3>
    86f2:	4770      	bx	lr

000086f4 <__aeabi_idiv0>:
__aeabi_idiv0():
    86f4:	4770      	bx	lr
    86f6:	46c0      	nop			; (mov r8, r8)

000086f8 <__libc_init_array>:
__libc_init_array():
    86f8:	b570      	push	{r4, r5, r6, lr}
    86fa:	4d0c      	ldr	r5, [pc, #48]	; (872c <__libc_init_array+0x34>)
    86fc:	4e0c      	ldr	r6, [pc, #48]	; (8730 <__libc_init_array+0x38>)
    86fe:	1b76      	subs	r6, r6, r5
    8700:	10b6      	asrs	r6, r6, #2
    8702:	d005      	beq.n	8710 <__libc_init_array+0x18>
    8704:	2400      	movs	r4, #0
    8706:	cd08      	ldmia	r5!, {r3}
    8708:	3401      	adds	r4, #1
    870a:	4798      	blx	r3
    870c:	42a6      	cmp	r6, r4
    870e:	d1fa      	bne.n	8706 <__libc_init_array+0xe>
    8710:	f7ff fc76 	bl	8000 <_init>
    8714:	4d07      	ldr	r5, [pc, #28]	; (8734 <__libc_init_array+0x3c>)
    8716:	4e08      	ldr	r6, [pc, #32]	; (8738 <__libc_init_array+0x40>)
    8718:	1b76      	subs	r6, r6, r5
    871a:	10b6      	asrs	r6, r6, #2
    871c:	d005      	beq.n	872a <__libc_init_array+0x32>
    871e:	2400      	movs	r4, #0
    8720:	cd08      	ldmia	r5!, {r3}
    8722:	3401      	adds	r4, #1
    8724:	4798      	blx	r3
    8726:	42a6      	cmp	r6, r4
    8728:	d1fa      	bne.n	8720 <__libc_init_array+0x28>
    872a:	bd70      	pop	{r4, r5, r6, pc}
    872c:	00019208 	.word	0x00019208
    8730:	00019208 	.word	0x00019208
    8734:	00019208 	.word	0x00019208
    8738:	00019210 	.word	0x00019210

0000873c <malloc>:
malloc():
    873c:	b510      	push	{r4, lr}
    873e:	4b03      	ldr	r3, [pc, #12]	; (874c <malloc+0x10>)
    8740:	0001      	movs	r1, r0
    8742:	6818      	ldr	r0, [r3, #0]
    8744:	f000 f804 	bl	8750 <_malloc_r>
    8748:	bd10      	pop	{r4, pc}
    874a:	46c0      	nop			; (mov r8, r8)
    874c:	0001921c 	.word	0x0001921c

00008750 <_malloc_r>:
_malloc_r():
    8750:	b5f0      	push	{r4, r5, r6, r7, lr}
    8752:	464e      	mov	r6, r9
    8754:	4645      	mov	r5, r8
    8756:	46de      	mov	lr, fp
    8758:	4657      	mov	r7, sl
    875a:	b5e0      	push	{r5, r6, r7, lr}
    875c:	000d      	movs	r5, r1
    875e:	350b      	adds	r5, #11
    8760:	0006      	movs	r6, r0
    8762:	b083      	sub	sp, #12
    8764:	2d16      	cmp	r5, #22
    8766:	d822      	bhi.n	87ae <_malloc_r+0x5e>
    8768:	2910      	cmp	r1, #16
    876a:	d900      	bls.n	876e <_malloc_r+0x1e>
    876c:	e0b2      	b.n	88d4 <_malloc_r+0x184>
    876e:	f000 fb03 	bl	8d78 <__malloc_lock>
    8772:	2510      	movs	r5, #16
    8774:	2002      	movs	r0, #2
    8776:	2318      	movs	r3, #24
    8778:	4fcb      	ldr	r7, [pc, #812]	; (8aa8 <_malloc_r+0x358>)
    877a:	18fb      	adds	r3, r7, r3
    877c:	001a      	movs	r2, r3
    877e:	685c      	ldr	r4, [r3, #4]
    8780:	3a08      	subs	r2, #8
    8782:	4294      	cmp	r4, r2
    8784:	d100      	bne.n	8788 <_malloc_r+0x38>
    8786:	e0b5      	b.n	88f4 <_malloc_r+0x1a4>
    8788:	2303      	movs	r3, #3
    878a:	6862      	ldr	r2, [r4, #4]
    878c:	439a      	bics	r2, r3
    878e:	0013      	movs	r3, r2
    8790:	68e2      	ldr	r2, [r4, #12]
    8792:	68a1      	ldr	r1, [r4, #8]
    8794:	60ca      	str	r2, [r1, #12]
    8796:	6091      	str	r1, [r2, #8]
    8798:	2201      	movs	r2, #1
    879a:	18e3      	adds	r3, r4, r3
    879c:	6859      	ldr	r1, [r3, #4]
    879e:	0030      	movs	r0, r6
    87a0:	430a      	orrs	r2, r1
    87a2:	605a      	str	r2, [r3, #4]
    87a4:	f000 faf0 	bl	8d88 <__malloc_unlock>
    87a8:	0020      	movs	r0, r4
    87aa:	3008      	adds	r0, #8
    87ac:	e095      	b.n	88da <_malloc_r+0x18a>
    87ae:	2307      	movs	r3, #7
    87b0:	439d      	bics	r5, r3
    87b2:	d500      	bpl.n	87b6 <_malloc_r+0x66>
    87b4:	e08e      	b.n	88d4 <_malloc_r+0x184>
    87b6:	42a9      	cmp	r1, r5
    87b8:	d900      	bls.n	87bc <_malloc_r+0x6c>
    87ba:	e08b      	b.n	88d4 <_malloc_r+0x184>
    87bc:	f000 fadc 	bl	8d78 <__malloc_lock>
    87c0:	23fc      	movs	r3, #252	; 0xfc
    87c2:	005b      	lsls	r3, r3, #1
    87c4:	429d      	cmp	r5, r3
    87c6:	d200      	bcs.n	87ca <_malloc_r+0x7a>
    87c8:	e1a5      	b.n	8b16 <_malloc_r+0x3c6>
    87ca:	0a68      	lsrs	r0, r5, #9
    87cc:	d100      	bne.n	87d0 <_malloc_r+0x80>
    87ce:	e08b      	b.n	88e8 <_malloc_r+0x198>
    87d0:	2804      	cmp	r0, #4
    87d2:	d900      	bls.n	87d6 <_malloc_r+0x86>
    87d4:	e178      	b.n	8ac8 <_malloc_r+0x378>
    87d6:	2338      	movs	r3, #56	; 0x38
    87d8:	4698      	mov	r8, r3
    87da:	09a8      	lsrs	r0, r5, #6
    87dc:	4480      	add	r8, r0
    87de:	3039      	adds	r0, #57	; 0x39
    87e0:	00c1      	lsls	r1, r0, #3
    87e2:	4fb1      	ldr	r7, [pc, #708]	; (8aa8 <_malloc_r+0x358>)
    87e4:	1879      	adds	r1, r7, r1
    87e6:	684c      	ldr	r4, [r1, #4]
    87e8:	3908      	subs	r1, #8
    87ea:	42a1      	cmp	r1, r4
    87ec:	d00e      	beq.n	880c <_malloc_r+0xbc>
    87ee:	2303      	movs	r3, #3
    87f0:	469c      	mov	ip, r3
    87f2:	e004      	b.n	87fe <_malloc_r+0xae>
    87f4:	2a00      	cmp	r2, #0
    87f6:	dacb      	bge.n	8790 <_malloc_r+0x40>
    87f8:	68e4      	ldr	r4, [r4, #12]
    87fa:	42a1      	cmp	r1, r4
    87fc:	d006      	beq.n	880c <_malloc_r+0xbc>
    87fe:	4662      	mov	r2, ip
    8800:	6863      	ldr	r3, [r4, #4]
    8802:	4393      	bics	r3, r2
    8804:	1b5a      	subs	r2, r3, r5
    8806:	2a0f      	cmp	r2, #15
    8808:	ddf4      	ble.n	87f4 <_malloc_r+0xa4>
    880a:	4640      	mov	r0, r8
    880c:	003a      	movs	r2, r7
    880e:	693c      	ldr	r4, [r7, #16]
    8810:	3208      	adds	r2, #8
    8812:	4294      	cmp	r4, r2
    8814:	d100      	bne.n	8818 <_malloc_r+0xc8>
    8816:	e078      	b.n	890a <_malloc_r+0x1ba>
    8818:	2303      	movs	r3, #3
    881a:	6861      	ldr	r1, [r4, #4]
    881c:	4399      	bics	r1, r3
    881e:	4689      	mov	r9, r1
    8820:	000b      	movs	r3, r1
    8822:	1b49      	subs	r1, r1, r5
    8824:	290f      	cmp	r1, #15
    8826:	dd00      	ble.n	882a <_malloc_r+0xda>
    8828:	e179      	b.n	8b1e <_malloc_r+0x3ce>
    882a:	617a      	str	r2, [r7, #20]
    882c:	613a      	str	r2, [r7, #16]
    882e:	2900      	cmp	r1, #0
    8830:	dab2      	bge.n	8798 <_malloc_r+0x48>
    8832:	2280      	movs	r2, #128	; 0x80
    8834:	0092      	lsls	r2, r2, #2
    8836:	4591      	cmp	r9, r2
    8838:	d300      	bcc.n	883c <_malloc_r+0xec>
    883a:	e10e      	b.n	8a5a <_malloc_r+0x30a>
    883c:	0959      	lsrs	r1, r3, #5
    883e:	08da      	lsrs	r2, r3, #3
    8840:	2301      	movs	r3, #1
    8842:	408b      	lsls	r3, r1
    8844:	00d2      	lsls	r2, r2, #3
    8846:	6879      	ldr	r1, [r7, #4]
    8848:	19d2      	adds	r2, r2, r7
    884a:	430b      	orrs	r3, r1
    884c:	6891      	ldr	r1, [r2, #8]
    884e:	607b      	str	r3, [r7, #4]
    8850:	60e2      	str	r2, [r4, #12]
    8852:	60a1      	str	r1, [r4, #8]
    8854:	6094      	str	r4, [r2, #8]
    8856:	60cc      	str	r4, [r1, #12]
    8858:	2101      	movs	r1, #1
    885a:	1082      	asrs	r2, r0, #2
    885c:	4091      	lsls	r1, r2
    885e:	4299      	cmp	r1, r3
    8860:	d859      	bhi.n	8916 <_malloc_r+0x1c6>
    8862:	420b      	tst	r3, r1
    8864:	d105      	bne.n	8872 <_malloc_r+0x122>
    8866:	2203      	movs	r2, #3
    8868:	4390      	bics	r0, r2
    886a:	0049      	lsls	r1, r1, #1
    886c:	3004      	adds	r0, #4
    886e:	420b      	tst	r3, r1
    8870:	d0fb      	beq.n	886a <_malloc_r+0x11a>
    8872:	2303      	movs	r3, #3
    8874:	4698      	mov	r8, r3
    8876:	00c3      	lsls	r3, r0, #3
    8878:	4699      	mov	r9, r3
    887a:	44b9      	add	r9, r7
    887c:	46cc      	mov	ip, r9
    887e:	4682      	mov	sl, r0
    8880:	4663      	mov	r3, ip
    8882:	68dc      	ldr	r4, [r3, #12]
    8884:	45a4      	cmp	ip, r4
    8886:	d107      	bne.n	8898 <_malloc_r+0x148>
    8888:	e12a      	b.n	8ae0 <_malloc_r+0x390>
    888a:	2a00      	cmp	r2, #0
    888c:	db00      	blt.n	8890 <_malloc_r+0x140>
    888e:	e133      	b.n	8af8 <_malloc_r+0x3a8>
    8890:	68e4      	ldr	r4, [r4, #12]
    8892:	45a4      	cmp	ip, r4
    8894:	d100      	bne.n	8898 <_malloc_r+0x148>
    8896:	e123      	b.n	8ae0 <_malloc_r+0x390>
    8898:	4642      	mov	r2, r8
    889a:	6863      	ldr	r3, [r4, #4]
    889c:	4393      	bics	r3, r2
    889e:	1b5a      	subs	r2, r3, r5
    88a0:	2a0f      	cmp	r2, #15
    88a2:	ddf2      	ble.n	888a <_malloc_r+0x13a>
    88a4:	2001      	movs	r0, #1
    88a6:	4680      	mov	r8, r0
    88a8:	1961      	adds	r1, r4, r5
    88aa:	4305      	orrs	r5, r0
    88ac:	6065      	str	r5, [r4, #4]
    88ae:	68a0      	ldr	r0, [r4, #8]
    88b0:	68e5      	ldr	r5, [r4, #12]
    88b2:	3708      	adds	r7, #8
    88b4:	60c5      	str	r5, [r0, #12]
    88b6:	60a8      	str	r0, [r5, #8]
    88b8:	4640      	mov	r0, r8
    88ba:	4310      	orrs	r0, r2
    88bc:	60f9      	str	r1, [r7, #12]
    88be:	60b9      	str	r1, [r7, #8]
    88c0:	6048      	str	r0, [r1, #4]
    88c2:	60cf      	str	r7, [r1, #12]
    88c4:	0030      	movs	r0, r6
    88c6:	608f      	str	r7, [r1, #8]
    88c8:	50e2      	str	r2, [r4, r3]
    88ca:	f000 fa5d 	bl	8d88 <__malloc_unlock>
    88ce:	0020      	movs	r0, r4
    88d0:	3008      	adds	r0, #8
    88d2:	e002      	b.n	88da <_malloc_r+0x18a>
    88d4:	230c      	movs	r3, #12
    88d6:	2000      	movs	r0, #0
    88d8:	6033      	str	r3, [r6, #0]
    88da:	b003      	add	sp, #12
    88dc:	bc3c      	pop	{r2, r3, r4, r5}
    88de:	4690      	mov	r8, r2
    88e0:	4699      	mov	r9, r3
    88e2:	46a2      	mov	sl, r4
    88e4:	46ab      	mov	fp, r5
    88e6:	bdf0      	pop	{r4, r5, r6, r7, pc}
    88e8:	2180      	movs	r1, #128	; 0x80
    88ea:	233f      	movs	r3, #63	; 0x3f
    88ec:	2040      	movs	r0, #64	; 0x40
    88ee:	4698      	mov	r8, r3
    88f0:	0089      	lsls	r1, r1, #2
    88f2:	e776      	b.n	87e2 <_malloc_r+0x92>
    88f4:	68dc      	ldr	r4, [r3, #12]
    88f6:	3002      	adds	r0, #2
    88f8:	42a3      	cmp	r3, r4
    88fa:	d000      	beq.n	88fe <_malloc_r+0x1ae>
    88fc:	e744      	b.n	8788 <_malloc_r+0x38>
    88fe:	003a      	movs	r2, r7
    8900:	693c      	ldr	r4, [r7, #16]
    8902:	3208      	adds	r2, #8
    8904:	4294      	cmp	r4, r2
    8906:	d000      	beq.n	890a <_malloc_r+0x1ba>
    8908:	e786      	b.n	8818 <_malloc_r+0xc8>
    890a:	2101      	movs	r1, #1
    890c:	687b      	ldr	r3, [r7, #4]
    890e:	1082      	asrs	r2, r0, #2
    8910:	4091      	lsls	r1, r2
    8912:	4299      	cmp	r1, r3
    8914:	d9a5      	bls.n	8862 <_malloc_r+0x112>
    8916:	2303      	movs	r3, #3
    8918:	68bc      	ldr	r4, [r7, #8]
    891a:	6862      	ldr	r2, [r4, #4]
    891c:	439a      	bics	r2, r3
    891e:	4691      	mov	r9, r2
    8920:	4295      	cmp	r5, r2
    8922:	d803      	bhi.n	892c <_malloc_r+0x1dc>
    8924:	1b53      	subs	r3, r2, r5
    8926:	2b0f      	cmp	r3, #15
    8928:	dd00      	ble.n	892c <_malloc_r+0x1dc>
    892a:	e088      	b.n	8a3e <_malloc_r+0x2ee>
    892c:	0023      	movs	r3, r4
    892e:	444b      	add	r3, r9
    8930:	4a5e      	ldr	r2, [pc, #376]	; (8aac <_malloc_r+0x35c>)
    8932:	9301      	str	r3, [sp, #4]
    8934:	4b5e      	ldr	r3, [pc, #376]	; (8ab0 <_malloc_r+0x360>)
    8936:	4693      	mov	fp, r2
    8938:	681b      	ldr	r3, [r3, #0]
    893a:	6812      	ldr	r2, [r2, #0]
    893c:	18eb      	adds	r3, r5, r3
    893e:	3201      	adds	r2, #1
    8940:	d100      	bne.n	8944 <_malloc_r+0x1f4>
    8942:	e13b      	b.n	8bbc <_malloc_r+0x46c>
    8944:	4a5b      	ldr	r2, [pc, #364]	; (8ab4 <_malloc_r+0x364>)
    8946:	4694      	mov	ip, r2
    8948:	4463      	add	r3, ip
    894a:	0b1b      	lsrs	r3, r3, #12
    894c:	031b      	lsls	r3, r3, #12
    894e:	9300      	str	r3, [sp, #0]
    8950:	0030      	movs	r0, r6
    8952:	9900      	ldr	r1, [sp, #0]
    8954:	f000 fa20 	bl	8d98 <_sbrk_r>
    8958:	0003      	movs	r3, r0
    895a:	4680      	mov	r8, r0
    895c:	3301      	adds	r3, #1
    895e:	d100      	bne.n	8962 <_malloc_r+0x212>
    8960:	e0f8      	b.n	8b54 <_malloc_r+0x404>
    8962:	9b01      	ldr	r3, [sp, #4]
    8964:	4283      	cmp	r3, r0
    8966:	d900      	bls.n	896a <_malloc_r+0x21a>
    8968:	e0f2      	b.n	8b50 <_malloc_r+0x400>
    896a:	4b53      	ldr	r3, [pc, #332]	; (8ab8 <_malloc_r+0x368>)
    896c:	0019      	movs	r1, r3
    896e:	469a      	mov	sl, r3
    8970:	6809      	ldr	r1, [r1, #0]
    8972:	9b00      	ldr	r3, [sp, #0]
    8974:	468c      	mov	ip, r1
    8976:	4651      	mov	r1, sl
    8978:	4463      	add	r3, ip
    897a:	600b      	str	r3, [r1, #0]
    897c:	9901      	ldr	r1, [sp, #4]
    897e:	001a      	movs	r2, r3
    8980:	4281      	cmp	r1, r0
    8982:	d100      	bne.n	8986 <_malloc_r+0x236>
    8984:	e150      	b.n	8c28 <_malloc_r+0x4d8>
    8986:	465b      	mov	r3, fp
    8988:	681b      	ldr	r3, [r3, #0]
    898a:	3301      	adds	r3, #1
    898c:	d100      	bne.n	8990 <_malloc_r+0x240>
    898e:	e155      	b.n	8c3c <_malloc_r+0x4ec>
    8990:	4643      	mov	r3, r8
    8992:	9901      	ldr	r1, [sp, #4]
    8994:	1a5b      	subs	r3, r3, r1
    8996:	189a      	adds	r2, r3, r2
    8998:	4653      	mov	r3, sl
    899a:	601a      	str	r2, [r3, #0]
    899c:	2307      	movs	r3, #7
    899e:	4642      	mov	r2, r8
    89a0:	4641      	mov	r1, r8
    89a2:	401a      	ands	r2, r3
    89a4:	9201      	str	r2, [sp, #4]
    89a6:	4219      	tst	r1, r3
    89a8:	d100      	bne.n	89ac <_malloc_r+0x25c>
    89aa:	e111      	b.n	8bd0 <_malloc_r+0x480>
    89ac:	2308      	movs	r3, #8
    89ae:	4698      	mov	r8, r3
    89b0:	1a88      	subs	r0, r1, r2
    89b2:	4b42      	ldr	r3, [pc, #264]	; (8abc <_malloc_r+0x36c>)
    89b4:	9900      	ldr	r1, [sp, #0]
    89b6:	4480      	add	r8, r0
    89b8:	4441      	add	r1, r8
    89ba:	1a9b      	subs	r3, r3, r2
    89bc:	1a5b      	subs	r3, r3, r1
    89be:	051b      	lsls	r3, r3, #20
    89c0:	0d1b      	lsrs	r3, r3, #20
    89c2:	9100      	str	r1, [sp, #0]
    89c4:	0030      	movs	r0, r6
    89c6:	0019      	movs	r1, r3
    89c8:	469b      	mov	fp, r3
    89ca:	f000 f9e5 	bl	8d98 <_sbrk_r>
    89ce:	1c43      	adds	r3, r0, #1
    89d0:	d100      	bne.n	89d4 <_malloc_r+0x284>
    89d2:	e14f      	b.n	8c74 <_malloc_r+0x524>
    89d4:	4643      	mov	r3, r8
    89d6:	1ac0      	subs	r0, r0, r3
    89d8:	0003      	movs	r3, r0
    89da:	445b      	add	r3, fp
    89dc:	9300      	str	r3, [sp, #0]
    89de:	4653      	mov	r3, sl
    89e0:	4652      	mov	r2, sl
    89e2:	681b      	ldr	r3, [r3, #0]
    89e4:	2101      	movs	r1, #1
    89e6:	445b      	add	r3, fp
    89e8:	6013      	str	r3, [r2, #0]
    89ea:	4642      	mov	r2, r8
    89ec:	4640      	mov	r0, r8
    89ee:	60ba      	str	r2, [r7, #8]
    89f0:	9a00      	ldr	r2, [sp, #0]
    89f2:	430a      	orrs	r2, r1
    89f4:	6042      	str	r2, [r0, #4]
    89f6:	42bc      	cmp	r4, r7
    89f8:	d100      	bne.n	89fc <_malloc_r+0x2ac>
    89fa:	e123      	b.n	8c44 <_malloc_r+0x4f4>
    89fc:	464a      	mov	r2, r9
    89fe:	2a0f      	cmp	r2, #15
    8a00:	d800      	bhi.n	8a04 <_malloc_r+0x2b4>
    8a02:	e121      	b.n	8c48 <_malloc_r+0x4f8>
    8a04:	2007      	movs	r0, #7
    8a06:	3a0c      	subs	r2, #12
    8a08:	4382      	bics	r2, r0
    8a0a:	6860      	ldr	r0, [r4, #4]
    8a0c:	4001      	ands	r1, r0
    8a0e:	2005      	movs	r0, #5
    8a10:	4311      	orrs	r1, r2
    8a12:	6061      	str	r1, [r4, #4]
    8a14:	18a1      	adds	r1, r4, r2
    8a16:	6048      	str	r0, [r1, #4]
    8a18:	6088      	str	r0, [r1, #8]
    8a1a:	2a0f      	cmp	r2, #15
    8a1c:	d900      	bls.n	8a20 <_malloc_r+0x2d0>
    8a1e:	e134      	b.n	8c8a <_malloc_r+0x53a>
    8a20:	4642      	mov	r2, r8
    8a22:	4644      	mov	r4, r8
    8a24:	6852      	ldr	r2, [r2, #4]
    8a26:	4926      	ldr	r1, [pc, #152]	; (8ac0 <_malloc_r+0x370>)
    8a28:	6808      	ldr	r0, [r1, #0]
    8a2a:	4298      	cmp	r0, r3
    8a2c:	d200      	bcs.n	8a30 <_malloc_r+0x2e0>
    8a2e:	600b      	str	r3, [r1, #0]
    8a30:	4924      	ldr	r1, [pc, #144]	; (8ac4 <_malloc_r+0x374>)
    8a32:	6808      	ldr	r0, [r1, #0]
    8a34:	4298      	cmp	r0, r3
    8a36:	d300      	bcc.n	8a3a <_malloc_r+0x2ea>
    8a38:	e08e      	b.n	8b58 <_malloc_r+0x408>
    8a3a:	600b      	str	r3, [r1, #0]
    8a3c:	e08c      	b.n	8b58 <_malloc_r+0x408>
    8a3e:	2201      	movs	r2, #1
    8a40:	0029      	movs	r1, r5
    8a42:	4313      	orrs	r3, r2
    8a44:	4311      	orrs	r1, r2
    8a46:	1965      	adds	r5, r4, r5
    8a48:	6061      	str	r1, [r4, #4]
    8a4a:	0030      	movs	r0, r6
    8a4c:	60bd      	str	r5, [r7, #8]
    8a4e:	606b      	str	r3, [r5, #4]
    8a50:	f000 f99a 	bl	8d88 <__malloc_unlock>
    8a54:	0020      	movs	r0, r4
    8a56:	3008      	adds	r0, #8
    8a58:	e73f      	b.n	88da <_malloc_r+0x18a>
    8a5a:	0a5a      	lsrs	r2, r3, #9
    8a5c:	2a04      	cmp	r2, #4
    8a5e:	d971      	bls.n	8b44 <_malloc_r+0x3f4>
    8a60:	2a14      	cmp	r2, #20
    8a62:	d900      	bls.n	8a66 <_malloc_r+0x316>
    8a64:	e0c4      	b.n	8bf0 <_malloc_r+0x4a0>
    8a66:	0011      	movs	r1, r2
    8a68:	325c      	adds	r2, #92	; 0x5c
    8a6a:	315b      	adds	r1, #91	; 0x5b
    8a6c:	00d2      	lsls	r2, r2, #3
    8a6e:	2308      	movs	r3, #8
    8a70:	425b      	negs	r3, r3
    8a72:	469c      	mov	ip, r3
    8a74:	18ba      	adds	r2, r7, r2
    8a76:	4494      	add	ip, r2
    8a78:	4663      	mov	r3, ip
    8a7a:	689a      	ldr	r2, [r3, #8]
    8a7c:	2303      	movs	r3, #3
    8a7e:	4698      	mov	r8, r3
    8a80:	4594      	cmp	ip, r2
    8a82:	d100      	bne.n	8a86 <_malloc_r+0x336>
    8a84:	e09d      	b.n	8bc2 <_malloc_r+0x472>
    8a86:	4643      	mov	r3, r8
    8a88:	6851      	ldr	r1, [r2, #4]
    8a8a:	4399      	bics	r1, r3
    8a8c:	4549      	cmp	r1, r9
    8a8e:	d902      	bls.n	8a96 <_malloc_r+0x346>
    8a90:	6892      	ldr	r2, [r2, #8]
    8a92:	4594      	cmp	ip, r2
    8a94:	d1f7      	bne.n	8a86 <_malloc_r+0x336>
    8a96:	68d3      	ldr	r3, [r2, #12]
    8a98:	469c      	mov	ip, r3
    8a9a:	687b      	ldr	r3, [r7, #4]
    8a9c:	4661      	mov	r1, ip
    8a9e:	60a2      	str	r2, [r4, #8]
    8aa0:	60e1      	str	r1, [r4, #12]
    8aa2:	608c      	str	r4, [r1, #8]
    8aa4:	60d4      	str	r4, [r2, #12]
    8aa6:	e6d7      	b.n	8858 <_malloc_r+0x108>
    8aa8:	00019648 	.word	0x00019648
    8aac:	00019a50 	.word	0x00019a50
    8ab0:	00019ad8 	.word	0x00019ad8
    8ab4:	0000100f 	.word	0x0000100f
    8ab8:	00019aa8 	.word	0x00019aa8
    8abc:	00001008 	.word	0x00001008
    8ac0:	00019ad0 	.word	0x00019ad0
    8ac4:	00019ad4 	.word	0x00019ad4
    8ac8:	2814      	cmp	r0, #20
    8aca:	d952      	bls.n	8b72 <_malloc_r+0x422>
    8acc:	2854      	cmp	r0, #84	; 0x54
    8ace:	d900      	bls.n	8ad2 <_malloc_r+0x382>
    8ad0:	e096      	b.n	8c00 <_malloc_r+0x4b0>
    8ad2:	236e      	movs	r3, #110	; 0x6e
    8ad4:	4698      	mov	r8, r3
    8ad6:	0b28      	lsrs	r0, r5, #12
    8ad8:	4480      	add	r8, r0
    8ada:	306f      	adds	r0, #111	; 0x6f
    8adc:	00c1      	lsls	r1, r0, #3
    8ade:	e680      	b.n	87e2 <_malloc_r+0x92>
    8ae0:	2308      	movs	r3, #8
    8ae2:	469b      	mov	fp, r3
    8ae4:	3b07      	subs	r3, #7
    8ae6:	44dc      	add	ip, fp
    8ae8:	469b      	mov	fp, r3
    8aea:	44da      	add	sl, fp
    8aec:	4643      	mov	r3, r8
    8aee:	4652      	mov	r2, sl
    8af0:	4213      	tst	r3, r2
    8af2:	d000      	beq.n	8af6 <_malloc_r+0x3a6>
    8af4:	e6c4      	b.n	8880 <_malloc_r+0x130>
    8af6:	e04c      	b.n	8b92 <_malloc_r+0x442>
    8af8:	2201      	movs	r2, #1
    8afa:	18e3      	adds	r3, r4, r3
    8afc:	6859      	ldr	r1, [r3, #4]
    8afe:	0030      	movs	r0, r6
    8b00:	430a      	orrs	r2, r1
    8b02:	605a      	str	r2, [r3, #4]
    8b04:	68e3      	ldr	r3, [r4, #12]
    8b06:	68a2      	ldr	r2, [r4, #8]
    8b08:	60d3      	str	r3, [r2, #12]
    8b0a:	609a      	str	r2, [r3, #8]
    8b0c:	f000 f93c 	bl	8d88 <__malloc_unlock>
    8b10:	0020      	movs	r0, r4
    8b12:	3008      	adds	r0, #8
    8b14:	e6e1      	b.n	88da <_malloc_r+0x18a>
    8b16:	002b      	movs	r3, r5
    8b18:	08e8      	lsrs	r0, r5, #3
    8b1a:	3308      	adds	r3, #8
    8b1c:	e62c      	b.n	8778 <_malloc_r+0x28>
    8b1e:	2301      	movs	r3, #1
    8b20:	1960      	adds	r0, r4, r5
    8b22:	431d      	orrs	r5, r3
    8b24:	6065      	str	r5, [r4, #4]
    8b26:	6178      	str	r0, [r7, #20]
    8b28:	6138      	str	r0, [r7, #16]
    8b2a:	60c2      	str	r2, [r0, #12]
    8b2c:	6082      	str	r2, [r0, #8]
    8b2e:	001a      	movs	r2, r3
    8b30:	464b      	mov	r3, r9
    8b32:	430a      	orrs	r2, r1
    8b34:	6042      	str	r2, [r0, #4]
    8b36:	0030      	movs	r0, r6
    8b38:	50e1      	str	r1, [r4, r3]
    8b3a:	f000 f925 	bl	8d88 <__malloc_unlock>
    8b3e:	0020      	movs	r0, r4
    8b40:	3008      	adds	r0, #8
    8b42:	e6ca      	b.n	88da <_malloc_r+0x18a>
    8b44:	099a      	lsrs	r2, r3, #6
    8b46:	0011      	movs	r1, r2
    8b48:	3239      	adds	r2, #57	; 0x39
    8b4a:	3138      	adds	r1, #56	; 0x38
    8b4c:	00d2      	lsls	r2, r2, #3
    8b4e:	e78e      	b.n	8a6e <_malloc_r+0x31e>
    8b50:	42bc      	cmp	r4, r7
    8b52:	d060      	beq.n	8c16 <_malloc_r+0x4c6>
    8b54:	68bc      	ldr	r4, [r7, #8]
    8b56:	6862      	ldr	r2, [r4, #4]
    8b58:	2303      	movs	r3, #3
    8b5a:	439a      	bics	r2, r3
    8b5c:	1b53      	subs	r3, r2, r5
    8b5e:	4295      	cmp	r5, r2
    8b60:	d802      	bhi.n	8b68 <_malloc_r+0x418>
    8b62:	2b0f      	cmp	r3, #15
    8b64:	dd00      	ble.n	8b68 <_malloc_r+0x418>
    8b66:	e76a      	b.n	8a3e <_malloc_r+0x2ee>
    8b68:	0030      	movs	r0, r6
    8b6a:	f000 f90d 	bl	8d88 <__malloc_unlock>
    8b6e:	2000      	movs	r0, #0
    8b70:	e6b3      	b.n	88da <_malloc_r+0x18a>
    8b72:	235b      	movs	r3, #91	; 0x5b
    8b74:	4698      	mov	r8, r3
    8b76:	4480      	add	r8, r0
    8b78:	305c      	adds	r0, #92	; 0x5c
    8b7a:	00c1      	lsls	r1, r0, #3
    8b7c:	e631      	b.n	87e2 <_malloc_r+0x92>
    8b7e:	2308      	movs	r3, #8
    8b80:	425b      	negs	r3, r3
    8b82:	469c      	mov	ip, r3
    8b84:	44e1      	add	r9, ip
    8b86:	464b      	mov	r3, r9
    8b88:	689b      	ldr	r3, [r3, #8]
    8b8a:	3801      	subs	r0, #1
    8b8c:	454b      	cmp	r3, r9
    8b8e:	d000      	beq.n	8b92 <_malloc_r+0x442>
    8b90:	e098      	b.n	8cc4 <_malloc_r+0x574>
    8b92:	4643      	mov	r3, r8
    8b94:	4203      	tst	r3, r0
    8b96:	d1f2      	bne.n	8b7e <_malloc_r+0x42e>
    8b98:	687b      	ldr	r3, [r7, #4]
    8b9a:	438b      	bics	r3, r1
    8b9c:	607b      	str	r3, [r7, #4]
    8b9e:	0049      	lsls	r1, r1, #1
    8ba0:	4299      	cmp	r1, r3
    8ba2:	d900      	bls.n	8ba6 <_malloc_r+0x456>
    8ba4:	e6b7      	b.n	8916 <_malloc_r+0x1c6>
    8ba6:	2900      	cmp	r1, #0
    8ba8:	d104      	bne.n	8bb4 <_malloc_r+0x464>
    8baa:	e6b4      	b.n	8916 <_malloc_r+0x1c6>
    8bac:	2204      	movs	r2, #4
    8bae:	4694      	mov	ip, r2
    8bb0:	0049      	lsls	r1, r1, #1
    8bb2:	44e2      	add	sl, ip
    8bb4:	420b      	tst	r3, r1
    8bb6:	d0f9      	beq.n	8bac <_malloc_r+0x45c>
    8bb8:	4650      	mov	r0, sl
    8bba:	e65c      	b.n	8876 <_malloc_r+0x126>
    8bbc:	3310      	adds	r3, #16
    8bbe:	9300      	str	r3, [sp, #0]
    8bc0:	e6c6      	b.n	8950 <_malloc_r+0x200>
    8bc2:	1089      	asrs	r1, r1, #2
    8bc4:	3b02      	subs	r3, #2
    8bc6:	408b      	lsls	r3, r1
    8bc8:	6879      	ldr	r1, [r7, #4]
    8bca:	430b      	orrs	r3, r1
    8bcc:	607b      	str	r3, [r7, #4]
    8bce:	e765      	b.n	8a9c <_malloc_r+0x34c>
    8bd0:	9b00      	ldr	r3, [sp, #0]
    8bd2:	0030      	movs	r0, r6
    8bd4:	4443      	add	r3, r8
    8bd6:	425b      	negs	r3, r3
    8bd8:	051b      	lsls	r3, r3, #20
    8bda:	0d1b      	lsrs	r3, r3, #20
    8bdc:	0019      	movs	r1, r3
    8bde:	469b      	mov	fp, r3
    8be0:	f000 f8da 	bl	8d98 <_sbrk_r>
    8be4:	1c43      	adds	r3, r0, #1
    8be6:	d000      	beq.n	8bea <_malloc_r+0x49a>
    8be8:	e6f4      	b.n	89d4 <_malloc_r+0x284>
    8bea:	2300      	movs	r3, #0
    8bec:	469b      	mov	fp, r3
    8bee:	e6f6      	b.n	89de <_malloc_r+0x28e>
    8bf0:	2a54      	cmp	r2, #84	; 0x54
    8bf2:	d82b      	bhi.n	8c4c <_malloc_r+0x4fc>
    8bf4:	0b1a      	lsrs	r2, r3, #12
    8bf6:	0011      	movs	r1, r2
    8bf8:	326f      	adds	r2, #111	; 0x6f
    8bfa:	316e      	adds	r1, #110	; 0x6e
    8bfc:	00d2      	lsls	r2, r2, #3
    8bfe:	e736      	b.n	8a6e <_malloc_r+0x31e>
    8c00:	23aa      	movs	r3, #170	; 0xaa
    8c02:	005b      	lsls	r3, r3, #1
    8c04:	4298      	cmp	r0, r3
    8c06:	d82b      	bhi.n	8c60 <_malloc_r+0x510>
    8c08:	3bdd      	subs	r3, #221	; 0xdd
    8c0a:	4698      	mov	r8, r3
    8c0c:	0be8      	lsrs	r0, r5, #15
    8c0e:	4480      	add	r8, r0
    8c10:	3078      	adds	r0, #120	; 0x78
    8c12:	00c1      	lsls	r1, r0, #3
    8c14:	e5e5      	b.n	87e2 <_malloc_r+0x92>
    8c16:	4b2c      	ldr	r3, [pc, #176]	; (8cc8 <_malloc_r+0x578>)
    8c18:	9a00      	ldr	r2, [sp, #0]
    8c1a:	469a      	mov	sl, r3
    8c1c:	681b      	ldr	r3, [r3, #0]
    8c1e:	469c      	mov	ip, r3
    8c20:	4653      	mov	r3, sl
    8c22:	4462      	add	r2, ip
    8c24:	601a      	str	r2, [r3, #0]
    8c26:	e6ae      	b.n	8986 <_malloc_r+0x236>
    8c28:	0509      	lsls	r1, r1, #20
    8c2a:	d000      	beq.n	8c2e <_malloc_r+0x4de>
    8c2c:	e6ab      	b.n	8986 <_malloc_r+0x236>
    8c2e:	9a00      	ldr	r2, [sp, #0]
    8c30:	68bc      	ldr	r4, [r7, #8]
    8c32:	444a      	add	r2, r9
    8c34:	3101      	adds	r1, #1
    8c36:	430a      	orrs	r2, r1
    8c38:	6062      	str	r2, [r4, #4]
    8c3a:	e6f4      	b.n	8a26 <_malloc_r+0x2d6>
    8c3c:	465b      	mov	r3, fp
    8c3e:	4642      	mov	r2, r8
    8c40:	601a      	str	r2, [r3, #0]
    8c42:	e6ab      	b.n	899c <_malloc_r+0x24c>
    8c44:	4644      	mov	r4, r8
    8c46:	e6ee      	b.n	8a26 <_malloc_r+0x2d6>
    8c48:	6041      	str	r1, [r0, #4]
    8c4a:	e78d      	b.n	8b68 <_malloc_r+0x418>
    8c4c:	21aa      	movs	r1, #170	; 0xaa
    8c4e:	0049      	lsls	r1, r1, #1
    8c50:	428a      	cmp	r2, r1
    8c52:	d824      	bhi.n	8c9e <_malloc_r+0x54e>
    8c54:	0bda      	lsrs	r2, r3, #15
    8c56:	0011      	movs	r1, r2
    8c58:	3278      	adds	r2, #120	; 0x78
    8c5a:	3177      	adds	r1, #119	; 0x77
    8c5c:	00d2      	lsls	r2, r2, #3
    8c5e:	e706      	b.n	8a6e <_malloc_r+0x31e>
    8c60:	4b1a      	ldr	r3, [pc, #104]	; (8ccc <_malloc_r+0x57c>)
    8c62:	4298      	cmp	r0, r3
    8c64:	d824      	bhi.n	8cb0 <_malloc_r+0x560>
    8c66:	237c      	movs	r3, #124	; 0x7c
    8c68:	4698      	mov	r8, r3
    8c6a:	0ca8      	lsrs	r0, r5, #18
    8c6c:	4480      	add	r8, r0
    8c6e:	307d      	adds	r0, #125	; 0x7d
    8c70:	00c1      	lsls	r1, r0, #3
    8c72:	e5b6      	b.n	87e2 <_malloc_r+0x92>
    8c74:	9a00      	ldr	r2, [sp, #0]
    8c76:	9b01      	ldr	r3, [sp, #4]
    8c78:	4694      	mov	ip, r2
    8c7a:	4642      	mov	r2, r8
    8c7c:	3b08      	subs	r3, #8
    8c7e:	4463      	add	r3, ip
    8c80:	1a9b      	subs	r3, r3, r2
    8c82:	9300      	str	r3, [sp, #0]
    8c84:	2300      	movs	r3, #0
    8c86:	469b      	mov	fp, r3
    8c88:	e6a9      	b.n	89de <_malloc_r+0x28e>
    8c8a:	0021      	movs	r1, r4
    8c8c:	0030      	movs	r0, r6
    8c8e:	3108      	adds	r1, #8
    8c90:	f000 f970 	bl	8f74 <_free_r>
    8c94:	4653      	mov	r3, sl
    8c96:	68bc      	ldr	r4, [r7, #8]
    8c98:	681b      	ldr	r3, [r3, #0]
    8c9a:	6862      	ldr	r2, [r4, #4]
    8c9c:	e6c3      	b.n	8a26 <_malloc_r+0x2d6>
    8c9e:	490b      	ldr	r1, [pc, #44]	; (8ccc <_malloc_r+0x57c>)
    8ca0:	428a      	cmp	r2, r1
    8ca2:	d80b      	bhi.n	8cbc <_malloc_r+0x56c>
    8ca4:	0c9a      	lsrs	r2, r3, #18
    8ca6:	0011      	movs	r1, r2
    8ca8:	327d      	adds	r2, #125	; 0x7d
    8caa:	317c      	adds	r1, #124	; 0x7c
    8cac:	00d2      	lsls	r2, r2, #3
    8cae:	e6de      	b.n	8a6e <_malloc_r+0x31e>
    8cb0:	21fe      	movs	r1, #254	; 0xfe
    8cb2:	237e      	movs	r3, #126	; 0x7e
    8cb4:	207f      	movs	r0, #127	; 0x7f
    8cb6:	4698      	mov	r8, r3
    8cb8:	0089      	lsls	r1, r1, #2
    8cba:	e592      	b.n	87e2 <_malloc_r+0x92>
    8cbc:	22fe      	movs	r2, #254	; 0xfe
    8cbe:	217e      	movs	r1, #126	; 0x7e
    8cc0:	0092      	lsls	r2, r2, #2
    8cc2:	e6d4      	b.n	8a6e <_malloc_r+0x31e>
    8cc4:	687b      	ldr	r3, [r7, #4]
    8cc6:	e76a      	b.n	8b9e <_malloc_r+0x44e>
    8cc8:	00019aa8 	.word	0x00019aa8
    8ccc:	00000554 	.word	0x00000554

00008cd0 <memset>:
memset():
    8cd0:	b5f0      	push	{r4, r5, r6, r7, lr}
    8cd2:	0005      	movs	r5, r0
    8cd4:	0783      	lsls	r3, r0, #30
    8cd6:	d04a      	beq.n	8d6e <memset+0x9e>
    8cd8:	1e54      	subs	r4, r2, #1
    8cda:	2a00      	cmp	r2, #0
    8cdc:	d044      	beq.n	8d68 <memset+0x98>
    8cde:	0003      	movs	r3, r0
    8ce0:	2203      	movs	r2, #3
    8ce2:	b2ce      	uxtb	r6, r1
    8ce4:	e002      	b.n	8cec <memset+0x1c>
    8ce6:	3501      	adds	r5, #1
    8ce8:	3c01      	subs	r4, #1
    8cea:	d33d      	bcc.n	8d68 <memset+0x98>
    8cec:	3301      	adds	r3, #1
    8cee:	702e      	strb	r6, [r5, #0]
    8cf0:	4213      	tst	r3, r2
    8cf2:	d1f8      	bne.n	8ce6 <memset+0x16>
    8cf4:	2c03      	cmp	r4, #3
    8cf6:	d92f      	bls.n	8d58 <memset+0x88>
    8cf8:	22ff      	movs	r2, #255	; 0xff
    8cfa:	400a      	ands	r2, r1
    8cfc:	0215      	lsls	r5, r2, #8
    8cfe:	4315      	orrs	r5, r2
    8d00:	042a      	lsls	r2, r5, #16
    8d02:	4315      	orrs	r5, r2
    8d04:	2c0f      	cmp	r4, #15
    8d06:	d935      	bls.n	8d74 <memset+0xa4>
    8d08:	0027      	movs	r7, r4
    8d0a:	3f10      	subs	r7, #16
    8d0c:	093f      	lsrs	r7, r7, #4
    8d0e:	013e      	lsls	r6, r7, #4
    8d10:	46b4      	mov	ip, r6
    8d12:	001e      	movs	r6, r3
    8d14:	001a      	movs	r2, r3
    8d16:	3610      	adds	r6, #16
    8d18:	4466      	add	r6, ip
    8d1a:	6015      	str	r5, [r2, #0]
    8d1c:	6055      	str	r5, [r2, #4]
    8d1e:	6095      	str	r5, [r2, #8]
    8d20:	60d5      	str	r5, [r2, #12]
    8d22:	3210      	adds	r2, #16
    8d24:	42b2      	cmp	r2, r6
    8d26:	d1f8      	bne.n	8d1a <memset+0x4a>
    8d28:	260f      	movs	r6, #15
    8d2a:	220c      	movs	r2, #12
    8d2c:	3701      	adds	r7, #1
    8d2e:	013f      	lsls	r7, r7, #4
    8d30:	4026      	ands	r6, r4
    8d32:	19db      	adds	r3, r3, r7
    8d34:	0037      	movs	r7, r6
    8d36:	4222      	tst	r2, r4
    8d38:	d017      	beq.n	8d6a <memset+0x9a>
    8d3a:	1f3e      	subs	r6, r7, #4
    8d3c:	08b6      	lsrs	r6, r6, #2
    8d3e:	00b4      	lsls	r4, r6, #2
    8d40:	46a4      	mov	ip, r4
    8d42:	001a      	movs	r2, r3
    8d44:	1d1c      	adds	r4, r3, #4
    8d46:	4464      	add	r4, ip
    8d48:	c220      	stmia	r2!, {r5}
    8d4a:	42a2      	cmp	r2, r4
    8d4c:	d1fc      	bne.n	8d48 <memset+0x78>
    8d4e:	2403      	movs	r4, #3
    8d50:	3601      	adds	r6, #1
    8d52:	00b6      	lsls	r6, r6, #2
    8d54:	199b      	adds	r3, r3, r6
    8d56:	403c      	ands	r4, r7
    8d58:	2c00      	cmp	r4, #0
    8d5a:	d005      	beq.n	8d68 <memset+0x98>
    8d5c:	b2c9      	uxtb	r1, r1
    8d5e:	191c      	adds	r4, r3, r4
    8d60:	7019      	strb	r1, [r3, #0]
    8d62:	3301      	adds	r3, #1
    8d64:	429c      	cmp	r4, r3
    8d66:	d1fb      	bne.n	8d60 <memset+0x90>
    8d68:	bdf0      	pop	{r4, r5, r6, r7, pc}
    8d6a:	0034      	movs	r4, r6
    8d6c:	e7f4      	b.n	8d58 <memset+0x88>
    8d6e:	0014      	movs	r4, r2
    8d70:	0003      	movs	r3, r0
    8d72:	e7bf      	b.n	8cf4 <memset+0x24>
    8d74:	0027      	movs	r7, r4
    8d76:	e7e0      	b.n	8d3a <memset+0x6a>

00008d78 <__malloc_lock>:
__malloc_lock():
    8d78:	b510      	push	{r4, lr}
    8d7a:	4802      	ldr	r0, [pc, #8]	; (8d84 <__malloc_lock+0xc>)
    8d7c:	f000 f9dc 	bl	9138 <__retarget_lock_acquire_recursive>
    8d80:	bd10      	pop	{r4, pc}
    8d82:	46c0      	nop			; (mov r8, r8)
    8d84:	00019af4 	.word	0x00019af4

00008d88 <__malloc_unlock>:
__malloc_unlock():
    8d88:	b510      	push	{r4, lr}
    8d8a:	4802      	ldr	r0, [pc, #8]	; (8d94 <__malloc_unlock+0xc>)
    8d8c:	f000 f9d6 	bl	913c <__retarget_lock_release_recursive>
    8d90:	bd10      	pop	{r4, pc}
    8d92:	46c0      	nop			; (mov r8, r8)
    8d94:	00019af4 	.word	0x00019af4

00008d98 <_sbrk_r>:
_sbrk_r():
    8d98:	2300      	movs	r3, #0
    8d9a:	b570      	push	{r4, r5, r6, lr}
    8d9c:	4d06      	ldr	r5, [pc, #24]	; (8db8 <_sbrk_r+0x20>)
    8d9e:	0004      	movs	r4, r0
    8da0:	0008      	movs	r0, r1
    8da2:	602b      	str	r3, [r5, #0]
    8da4:	f7ff fa9c 	bl	82e0 <_sbrk>
    8da8:	1c43      	adds	r3, r0, #1
    8daa:	d000      	beq.n	8dae <_sbrk_r+0x16>
    8dac:	bd70      	pop	{r4, r5, r6, pc}
    8dae:	682b      	ldr	r3, [r5, #0]
    8db0:	2b00      	cmp	r3, #0
    8db2:	d0fb      	beq.n	8dac <_sbrk_r+0x14>
    8db4:	6023      	str	r3, [r4, #0]
    8db6:	e7f9      	b.n	8dac <_sbrk_r+0x14>
    8db8:	00019b08 	.word	0x00019b08

00008dbc <__call_exitprocs>:
__call_exitprocs():
    8dbc:	b5f0      	push	{r4, r5, r6, r7, lr}
    8dbe:	46de      	mov	lr, fp
    8dc0:	464e      	mov	r6, r9
    8dc2:	4657      	mov	r7, sl
    8dc4:	4645      	mov	r5, r8
    8dc6:	b5e0      	push	{r5, r6, r7, lr}
    8dc8:	4b33      	ldr	r3, [pc, #204]	; (8e98 <__call_exitprocs+0xdc>)
    8dca:	b083      	sub	sp, #12
    8dcc:	681b      	ldr	r3, [r3, #0]
    8dce:	9001      	str	r0, [sp, #4]
    8dd0:	0018      	movs	r0, r3
    8dd2:	9300      	str	r3, [sp, #0]
    8dd4:	000f      	movs	r7, r1
    8dd6:	f000 f9af 	bl	9138 <__retarget_lock_acquire_recursive>
    8dda:	4b30      	ldr	r3, [pc, #192]	; (8e9c <__call_exitprocs+0xe0>)
    8ddc:	681b      	ldr	r3, [r3, #0]
    8dde:	001a      	movs	r2, r3
    8de0:	9300      	str	r3, [sp, #0]
    8de2:	23a4      	movs	r3, #164	; 0xa4
    8de4:	005b      	lsls	r3, r3, #1
    8de6:	58d6      	ldr	r6, [r2, r3]
    8de8:	2201      	movs	r2, #1
    8dea:	4699      	mov	r9, r3
    8dec:	4693      	mov	fp, r2
    8dee:	2e00      	cmp	r6, #0
    8df0:	d030      	beq.n	8e54 <__call_exitprocs+0x98>
    8df2:	6874      	ldr	r4, [r6, #4]
    8df4:	1e65      	subs	r5, r4, #1
    8df6:	d42d      	bmi.n	8e54 <__call_exitprocs+0x98>
    8df8:	23c4      	movs	r3, #196	; 0xc4
    8dfa:	005b      	lsls	r3, r3, #1
    8dfc:	469a      	mov	sl, r3
    8dfe:	3401      	adds	r4, #1
    8e00:	00a4      	lsls	r4, r4, #2
    8e02:	1934      	adds	r4, r6, r4
    8e04:	44b2      	add	sl, r6
    8e06:	e002      	b.n	8e0e <__call_exitprocs+0x52>
    8e08:	3c04      	subs	r4, #4
    8e0a:	3d01      	subs	r5, #1
    8e0c:	d322      	bcc.n	8e54 <__call_exitprocs+0x98>
    8e0e:	2f00      	cmp	r7, #0
    8e10:	d004      	beq.n	8e1c <__call_exitprocs+0x60>
    8e12:	2380      	movs	r3, #128	; 0x80
    8e14:	005b      	lsls	r3, r3, #1
    8e16:	58e3      	ldr	r3, [r4, r3]
    8e18:	42bb      	cmp	r3, r7
    8e1a:	d1f5      	bne.n	8e08 <__call_exitprocs+0x4c>
    8e1c:	6873      	ldr	r3, [r6, #4]
    8e1e:	6822      	ldr	r2, [r4, #0]
    8e20:	3b01      	subs	r3, #1
    8e22:	42ab      	cmp	r3, r5
    8e24:	d032      	beq.n	8e8c <__call_exitprocs+0xd0>
    8e26:	2300      	movs	r3, #0
    8e28:	6023      	str	r3, [r4, #0]
    8e2a:	2a00      	cmp	r2, #0
    8e2c:	d0ec      	beq.n	8e08 <__call_exitprocs+0x4c>
    8e2e:	6873      	ldr	r3, [r6, #4]
    8e30:	4651      	mov	r1, sl
    8e32:	4698      	mov	r8, r3
    8e34:	465b      	mov	r3, fp
    8e36:	40ab      	lsls	r3, r5
    8e38:	6809      	ldr	r1, [r1, #0]
    8e3a:	4219      	tst	r1, r3
    8e3c:	d115      	bne.n	8e6a <__call_exitprocs+0xae>
    8e3e:	4790      	blx	r2
    8e40:	6873      	ldr	r3, [r6, #4]
    8e42:	4543      	cmp	r3, r8
    8e44:	d11e      	bne.n	8e84 <__call_exitprocs+0xc8>
    8e46:	464a      	mov	r2, r9
    8e48:	9b00      	ldr	r3, [sp, #0]
    8e4a:	589b      	ldr	r3, [r3, r2]
    8e4c:	42b3      	cmp	r3, r6
    8e4e:	d0db      	beq.n	8e08 <__call_exitprocs+0x4c>
    8e50:	1e1e      	subs	r6, r3, #0
    8e52:	d1ce      	bne.n	8df2 <__call_exitprocs+0x36>
    8e54:	4b10      	ldr	r3, [pc, #64]	; (8e98 <__call_exitprocs+0xdc>)
    8e56:	6818      	ldr	r0, [r3, #0]
    8e58:	f000 f970 	bl	913c <__retarget_lock_release_recursive>
    8e5c:	b003      	add	sp, #12
    8e5e:	bc3c      	pop	{r2, r3, r4, r5}
    8e60:	4690      	mov	r8, r2
    8e62:	4699      	mov	r9, r3
    8e64:	46a2      	mov	sl, r4
    8e66:	46ab      	mov	fp, r5
    8e68:	bdf0      	pop	{r4, r5, r6, r7, pc}
    8e6a:	0031      	movs	r1, r6
    8e6c:	318d      	adds	r1, #141	; 0x8d
    8e6e:	31ff      	adds	r1, #255	; 0xff
    8e70:	6809      	ldr	r1, [r1, #0]
    8e72:	4219      	tst	r1, r3
    8e74:	d10c      	bne.n	8e90 <__call_exitprocs+0xd4>
    8e76:	2380      	movs	r3, #128	; 0x80
    8e78:	9801      	ldr	r0, [sp, #4]
    8e7a:	58e1      	ldr	r1, [r4, r3]
    8e7c:	4790      	blx	r2
    8e7e:	6873      	ldr	r3, [r6, #4]
    8e80:	4543      	cmp	r3, r8
    8e82:	d0e0      	beq.n	8e46 <__call_exitprocs+0x8a>
    8e84:	464a      	mov	r2, r9
    8e86:	9b00      	ldr	r3, [sp, #0]
    8e88:	589e      	ldr	r6, [r3, r2]
    8e8a:	e7b0      	b.n	8dee <__call_exitprocs+0x32>
    8e8c:	6075      	str	r5, [r6, #4]
    8e8e:	e7cc      	b.n	8e2a <__call_exitprocs+0x6e>
    8e90:	2380      	movs	r3, #128	; 0x80
    8e92:	58e0      	ldr	r0, [r4, r3]
    8e94:	4790      	blx	r2
    8e96:	e7d3      	b.n	8e40 <__call_exitprocs+0x84>
    8e98:	00019a58 	.word	0x00019a58
    8e9c:	000091f8 	.word	0x000091f8

00008ea0 <atexit>:
atexit():
    8ea0:	b510      	push	{r4, lr}
    8ea2:	0001      	movs	r1, r0
    8ea4:	2300      	movs	r3, #0
    8ea6:	2200      	movs	r2, #0
    8ea8:	2000      	movs	r0, #0
    8eaa:	f000 f949 	bl	9140 <__register_exitproc>
    8eae:	bd10      	pop	{r4, pc}

00008eb0 <__libc_fini_array>:
__libc_fini_array():
    8eb0:	b570      	push	{r4, r5, r6, lr}
    8eb2:	4d07      	ldr	r5, [pc, #28]	; (8ed0 <__libc_fini_array+0x20>)
    8eb4:	4c07      	ldr	r4, [pc, #28]	; (8ed4 <__libc_fini_array+0x24>)
    8eb6:	1b64      	subs	r4, r4, r5
    8eb8:	10a4      	asrs	r4, r4, #2
    8eba:	d005      	beq.n	8ec8 <__libc_fini_array+0x18>
    8ebc:	3c01      	subs	r4, #1
    8ebe:	00a3      	lsls	r3, r4, #2
    8ec0:	58eb      	ldr	r3, [r5, r3]
    8ec2:	4798      	blx	r3
    8ec4:	2c00      	cmp	r4, #0
    8ec6:	d1f9      	bne.n	8ebc <__libc_fini_array+0xc>
    8ec8:	f000 f990 	bl	91ec <_fini>
    8ecc:	bd70      	pop	{r4, r5, r6, pc}
    8ece:	46c0      	nop			; (mov r8, r8)
    8ed0:	00019210 	.word	0x00019210
    8ed4:	00019214 	.word	0x00019214

00008ed8 <_malloc_trim_r>:
_malloc_trim_r():
    8ed8:	b5f8      	push	{r3, r4, r5, r6, r7, lr}
    8eda:	000c      	movs	r4, r1
    8edc:	0005      	movs	r5, r0
    8ede:	f7ff ff4b 	bl	8d78 <__malloc_lock>
    8ee2:	4f20      	ldr	r7, [pc, #128]	; (8f64 <_malloc_trim_r+0x8c>)
    8ee4:	68bb      	ldr	r3, [r7, #8]
    8ee6:	685e      	ldr	r6, [r3, #4]
    8ee8:	2303      	movs	r3, #3
    8eea:	439e      	bics	r6, r3
    8eec:	4b1e      	ldr	r3, [pc, #120]	; (8f68 <_malloc_trim_r+0x90>)
    8eee:	1b34      	subs	r4, r6, r4
    8ef0:	469c      	mov	ip, r3
    8ef2:	4464      	add	r4, ip
    8ef4:	0b24      	lsrs	r4, r4, #12
    8ef6:	3c01      	subs	r4, #1
    8ef8:	3311      	adds	r3, #17
    8efa:	0324      	lsls	r4, r4, #12
    8efc:	429c      	cmp	r4, r3
    8efe:	db07      	blt.n	8f10 <_malloc_trim_r+0x38>
    8f00:	2100      	movs	r1, #0
    8f02:	0028      	movs	r0, r5
    8f04:	f7ff ff48 	bl	8d98 <_sbrk_r>
    8f08:	68bb      	ldr	r3, [r7, #8]
    8f0a:	199b      	adds	r3, r3, r6
    8f0c:	4298      	cmp	r0, r3
    8f0e:	d004      	beq.n	8f1a <_malloc_trim_r+0x42>
    8f10:	0028      	movs	r0, r5
    8f12:	f7ff ff39 	bl	8d88 <__malloc_unlock>
    8f16:	2000      	movs	r0, #0
    8f18:	bdf8      	pop	{r3, r4, r5, r6, r7, pc}
    8f1a:	0028      	movs	r0, r5
    8f1c:	4261      	negs	r1, r4
    8f1e:	f7ff ff3b 	bl	8d98 <_sbrk_r>
    8f22:	1c43      	adds	r3, r0, #1
    8f24:	d00d      	beq.n	8f42 <_malloc_trim_r+0x6a>
    8f26:	2201      	movs	r2, #1
    8f28:	68bb      	ldr	r3, [r7, #8]
    8f2a:	1b36      	subs	r6, r6, r4
    8f2c:	4316      	orrs	r6, r2
    8f2e:	605e      	str	r6, [r3, #4]
    8f30:	4b0e      	ldr	r3, [pc, #56]	; (8f6c <_malloc_trim_r+0x94>)
    8f32:	0028      	movs	r0, r5
    8f34:	681a      	ldr	r2, [r3, #0]
    8f36:	1b14      	subs	r4, r2, r4
    8f38:	601c      	str	r4, [r3, #0]
    8f3a:	f7ff ff25 	bl	8d88 <__malloc_unlock>
    8f3e:	2001      	movs	r0, #1
    8f40:	e7ea      	b.n	8f18 <_malloc_trim_r+0x40>
    8f42:	2100      	movs	r1, #0
    8f44:	0028      	movs	r0, r5
    8f46:	f7ff ff27 	bl	8d98 <_sbrk_r>
    8f4a:	68ba      	ldr	r2, [r7, #8]
    8f4c:	1a83      	subs	r3, r0, r2
    8f4e:	2b0f      	cmp	r3, #15
    8f50:	ddde      	ble.n	8f10 <_malloc_trim_r+0x38>
    8f52:	4907      	ldr	r1, [pc, #28]	; (8f70 <_malloc_trim_r+0x98>)
    8f54:	6809      	ldr	r1, [r1, #0]
    8f56:	1a40      	subs	r0, r0, r1
    8f58:	4904      	ldr	r1, [pc, #16]	; (8f6c <_malloc_trim_r+0x94>)
    8f5a:	6008      	str	r0, [r1, #0]
    8f5c:	2101      	movs	r1, #1
    8f5e:	430b      	orrs	r3, r1
    8f60:	6053      	str	r3, [r2, #4]
    8f62:	e7d5      	b.n	8f10 <_malloc_trim_r+0x38>
    8f64:	00019648 	.word	0x00019648
    8f68:	00000fef 	.word	0x00000fef
    8f6c:	00019aa8 	.word	0x00019aa8
    8f70:	00019a50 	.word	0x00019a50

00008f74 <_free_r>:
_free_r():
    8f74:	b5f0      	push	{r4, r5, r6, r7, lr}
    8f76:	46c6      	mov	lr, r8
    8f78:	0005      	movs	r5, r0
    8f7a:	000c      	movs	r4, r1
    8f7c:	b500      	push	{lr}
    8f7e:	2900      	cmp	r1, #0
    8f80:	d04f      	beq.n	9022 <_free_r+0xae>
    8f82:	f7ff fef9 	bl	8d78 <__malloc_lock>
    8f86:	0021      	movs	r1, r4
    8f88:	3908      	subs	r1, #8
    8f8a:	684c      	ldr	r4, [r1, #4]
    8f8c:	2601      	movs	r6, #1
    8f8e:	0022      	movs	r2, r4
    8f90:	2003      	movs	r0, #3
    8f92:	43b2      	bics	r2, r6
    8f94:	188f      	adds	r7, r1, r2
    8f96:	687b      	ldr	r3, [r7, #4]
    8f98:	4383      	bics	r3, r0
    8f9a:	4862      	ldr	r0, [pc, #392]	; (9124 <_free_r+0x1b0>)
    8f9c:	4698      	mov	r8, r3
    8f9e:	6883      	ldr	r3, [r0, #8]
    8fa0:	42bb      	cmp	r3, r7
    8fa2:	d06b      	beq.n	907c <_free_r+0x108>
    8fa4:	4643      	mov	r3, r8
    8fa6:	607b      	str	r3, [r7, #4]
    8fa8:	4226      	tst	r6, r4
    8faa:	d11e      	bne.n	8fea <_free_r+0x76>
    8fac:	2308      	movs	r3, #8
    8fae:	469c      	mov	ip, r3
    8fb0:	680c      	ldr	r4, [r1, #0]
    8fb2:	4484      	add	ip, r0
    8fb4:	1b09      	subs	r1, r1, r4
    8fb6:	1912      	adds	r2, r2, r4
    8fb8:	688c      	ldr	r4, [r1, #8]
    8fba:	4564      	cmp	r4, ip
    8fbc:	d04f      	beq.n	905e <_free_r+0xea>
    8fbe:	68cb      	ldr	r3, [r1, #12]
    8fc0:	60e3      	str	r3, [r4, #12]
    8fc2:	609c      	str	r4, [r3, #8]
    8fc4:	4643      	mov	r3, r8
    8fc6:	18fc      	adds	r4, r7, r3
    8fc8:	6864      	ldr	r4, [r4, #4]
    8fca:	4234      	tst	r4, r6
    8fcc:	d111      	bne.n	8ff2 <_free_r+0x7e>
    8fce:	68bb      	ldr	r3, [r7, #8]
    8fd0:	4c55      	ldr	r4, [pc, #340]	; (9128 <_free_r+0x1b4>)
    8fd2:	4442      	add	r2, r8
    8fd4:	42a3      	cmp	r3, r4
    8fd6:	d100      	bne.n	8fda <_free_r+0x66>
    8fd8:	e07f      	b.n	90da <_free_r+0x166>
    8fda:	68fc      	ldr	r4, [r7, #12]
    8fdc:	60dc      	str	r4, [r3, #12]
    8fde:	60a3      	str	r3, [r4, #8]
    8fe0:	2301      	movs	r3, #1
    8fe2:	4313      	orrs	r3, r2
    8fe4:	604b      	str	r3, [r1, #4]
    8fe6:	508a      	str	r2, [r1, r2]
    8fe8:	e006      	b.n	8ff8 <_free_r+0x84>
    8fea:	18fc      	adds	r4, r7, r3
    8fec:	6864      	ldr	r4, [r4, #4]
    8fee:	4234      	tst	r4, r6
    8ff0:	d0ed      	beq.n	8fce <_free_r+0x5a>
    8ff2:	4316      	orrs	r6, r2
    8ff4:	604e      	str	r6, [r1, #4]
    8ff6:	603a      	str	r2, [r7, #0]
    8ff8:	2380      	movs	r3, #128	; 0x80
    8ffa:	009b      	lsls	r3, r3, #2
    8ffc:	429a      	cmp	r2, r3
    8ffe:	d213      	bcs.n	9028 <_free_r+0xb4>
    9000:	0954      	lsrs	r4, r2, #5
    9002:	08d3      	lsrs	r3, r2, #3
    9004:	2201      	movs	r2, #1
    9006:	40a2      	lsls	r2, r4
    9008:	6844      	ldr	r4, [r0, #4]
    900a:	00db      	lsls	r3, r3, #3
    900c:	4322      	orrs	r2, r4
    900e:	6042      	str	r2, [r0, #4]
    9010:	1818      	adds	r0, r3, r0
    9012:	6883      	ldr	r3, [r0, #8]
    9014:	60c8      	str	r0, [r1, #12]
    9016:	608b      	str	r3, [r1, #8]
    9018:	6081      	str	r1, [r0, #8]
    901a:	60d9      	str	r1, [r3, #12]
    901c:	0028      	movs	r0, r5
    901e:	f7ff feb3 	bl	8d88 <__malloc_unlock>
    9022:	bc04      	pop	{r2}
    9024:	4690      	mov	r8, r2
    9026:	bdf0      	pop	{r4, r5, r6, r7, pc}
    9028:	0a53      	lsrs	r3, r2, #9
    902a:	2b04      	cmp	r3, #4
    902c:	d83f      	bhi.n	90ae <_free_r+0x13a>
    902e:	0994      	lsrs	r4, r2, #6
    9030:	0026      	movs	r6, r4
    9032:	3439      	adds	r4, #57	; 0x39
    9034:	3638      	adds	r6, #56	; 0x38
    9036:	00e4      	lsls	r4, r4, #3
    9038:	1904      	adds	r4, r0, r4
    903a:	6823      	ldr	r3, [r4, #0]
    903c:	3c08      	subs	r4, #8
    903e:	2703      	movs	r7, #3
    9040:	429c      	cmp	r4, r3
    9042:	d043      	beq.n	90cc <_free_r+0x158>
    9044:	6858      	ldr	r0, [r3, #4]
    9046:	43b8      	bics	r0, r7
    9048:	4290      	cmp	r0, r2
    904a:	d902      	bls.n	9052 <_free_r+0xde>
    904c:	689b      	ldr	r3, [r3, #8]
    904e:	429c      	cmp	r4, r3
    9050:	d1f8      	bne.n	9044 <_free_r+0xd0>
    9052:	68dc      	ldr	r4, [r3, #12]
    9054:	60cc      	str	r4, [r1, #12]
    9056:	608b      	str	r3, [r1, #8]
    9058:	60a1      	str	r1, [r4, #8]
    905a:	60d9      	str	r1, [r3, #12]
    905c:	e7de      	b.n	901c <_free_r+0xa8>
    905e:	4643      	mov	r3, r8
    9060:	18f8      	adds	r0, r7, r3
    9062:	6840      	ldr	r0, [r0, #4]
    9064:	4230      	tst	r0, r6
    9066:	d158      	bne.n	911a <_free_r+0x1a6>
    9068:	0013      	movs	r3, r2
    906a:	68b8      	ldr	r0, [r7, #8]
    906c:	68fa      	ldr	r2, [r7, #12]
    906e:	4443      	add	r3, r8
    9070:	431e      	orrs	r6, r3
    9072:	60c2      	str	r2, [r0, #12]
    9074:	6090      	str	r0, [r2, #8]
    9076:	604e      	str	r6, [r1, #4]
    9078:	50cb      	str	r3, [r1, r3]
    907a:	e7cf      	b.n	901c <_free_r+0xa8>
    907c:	0013      	movs	r3, r2
    907e:	4443      	add	r3, r8
    9080:	4226      	tst	r6, r4
    9082:	d106      	bne.n	9092 <_free_r+0x11e>
    9084:	680a      	ldr	r2, [r1, #0]
    9086:	1a89      	subs	r1, r1, r2
    9088:	688c      	ldr	r4, [r1, #8]
    908a:	189b      	adds	r3, r3, r2
    908c:	68ca      	ldr	r2, [r1, #12]
    908e:	60e2      	str	r2, [r4, #12]
    9090:	6094      	str	r4, [r2, #8]
    9092:	2201      	movs	r2, #1
    9094:	431a      	orrs	r2, r3
    9096:	604a      	str	r2, [r1, #4]
    9098:	4a24      	ldr	r2, [pc, #144]	; (912c <_free_r+0x1b8>)
    909a:	6081      	str	r1, [r0, #8]
    909c:	6812      	ldr	r2, [r2, #0]
    909e:	429a      	cmp	r2, r3
    90a0:	d8bc      	bhi.n	901c <_free_r+0xa8>
    90a2:	4b23      	ldr	r3, [pc, #140]	; (9130 <_free_r+0x1bc>)
    90a4:	0028      	movs	r0, r5
    90a6:	6819      	ldr	r1, [r3, #0]
    90a8:	f7ff ff16 	bl	8ed8 <_malloc_trim_r>
    90ac:	e7b6      	b.n	901c <_free_r+0xa8>
    90ae:	2b14      	cmp	r3, #20
    90b0:	d907      	bls.n	90c2 <_free_r+0x14e>
    90b2:	2b54      	cmp	r3, #84	; 0x54
    90b4:	d81a      	bhi.n	90ec <_free_r+0x178>
    90b6:	0b14      	lsrs	r4, r2, #12
    90b8:	0026      	movs	r6, r4
    90ba:	346f      	adds	r4, #111	; 0x6f
    90bc:	366e      	adds	r6, #110	; 0x6e
    90be:	00e4      	lsls	r4, r4, #3
    90c0:	e7ba      	b.n	9038 <_free_r+0xc4>
    90c2:	001e      	movs	r6, r3
    90c4:	335c      	adds	r3, #92	; 0x5c
    90c6:	365b      	adds	r6, #91	; 0x5b
    90c8:	00dc      	lsls	r4, r3, #3
    90ca:	e7b5      	b.n	9038 <_free_r+0xc4>
    90cc:	2201      	movs	r2, #1
    90ce:	10b6      	asrs	r6, r6, #2
    90d0:	40b2      	lsls	r2, r6
    90d2:	6846      	ldr	r6, [r0, #4]
    90d4:	4332      	orrs	r2, r6
    90d6:	6042      	str	r2, [r0, #4]
    90d8:	e7bc      	b.n	9054 <_free_r+0xe0>
    90da:	60d9      	str	r1, [r3, #12]
    90dc:	6099      	str	r1, [r3, #8]
    90de:	60cb      	str	r3, [r1, #12]
    90e0:	608b      	str	r3, [r1, #8]
    90e2:	2301      	movs	r3, #1
    90e4:	4313      	orrs	r3, r2
    90e6:	604b      	str	r3, [r1, #4]
    90e8:	508a      	str	r2, [r1, r2]
    90ea:	e797      	b.n	901c <_free_r+0xa8>
    90ec:	24aa      	movs	r4, #170	; 0xaa
    90ee:	0064      	lsls	r4, r4, #1
    90f0:	42a3      	cmp	r3, r4
    90f2:	d805      	bhi.n	9100 <_free_r+0x18c>
    90f4:	0bd4      	lsrs	r4, r2, #15
    90f6:	0026      	movs	r6, r4
    90f8:	3478      	adds	r4, #120	; 0x78
    90fa:	3677      	adds	r6, #119	; 0x77
    90fc:	00e4      	lsls	r4, r4, #3
    90fe:	e79b      	b.n	9038 <_free_r+0xc4>
    9100:	4c0c      	ldr	r4, [pc, #48]	; (9134 <_free_r+0x1c0>)
    9102:	42a3      	cmp	r3, r4
    9104:	d805      	bhi.n	9112 <_free_r+0x19e>
    9106:	0c94      	lsrs	r4, r2, #18
    9108:	0026      	movs	r6, r4
    910a:	347d      	adds	r4, #125	; 0x7d
    910c:	367c      	adds	r6, #124	; 0x7c
    910e:	00e4      	lsls	r4, r4, #3
    9110:	e792      	b.n	9038 <_free_r+0xc4>
    9112:	24fe      	movs	r4, #254	; 0xfe
    9114:	267e      	movs	r6, #126	; 0x7e
    9116:	00a4      	lsls	r4, r4, #2
    9118:	e78e      	b.n	9038 <_free_r+0xc4>
    911a:	0033      	movs	r3, r6
    911c:	4313      	orrs	r3, r2
    911e:	604b      	str	r3, [r1, #4]
    9120:	603a      	str	r2, [r7, #0]
    9122:	e77b      	b.n	901c <_free_r+0xa8>
    9124:	00019648 	.word	0x00019648
    9128:	00019650 	.word	0x00019650
    912c:	00019a54 	.word	0x00019a54
    9130:	00019ad8 	.word	0x00019ad8
    9134:	00000554 	.word	0x00000554

00009138 <__retarget_lock_acquire_recursive>:
__retarget_lock_acquire_recursive():
    9138:	4770      	bx	lr
    913a:	46c0      	nop			; (mov r8, r8)

0000913c <__retarget_lock_release_recursive>:
__retarget_lock_release_recursive():
    913c:	4770      	bx	lr
    913e:	46c0      	nop			; (mov r8, r8)

00009140 <__register_exitproc>:
__register_exitproc():
    9140:	b5f0      	push	{r4, r5, r6, r7, lr}
    9142:	46d6      	mov	lr, sl
    9144:	464f      	mov	r7, r9
    9146:	4646      	mov	r6, r8
    9148:	b5c0      	push	{r6, r7, lr}
    914a:	4f26      	ldr	r7, [pc, #152]	; (91e4 <__register_exitproc+0xa4>)
    914c:	b082      	sub	sp, #8
    914e:	0006      	movs	r6, r0
    9150:	6838      	ldr	r0, [r7, #0]
    9152:	4692      	mov	sl, r2
    9154:	4698      	mov	r8, r3
    9156:	4689      	mov	r9, r1
    9158:	f7ff ffee 	bl	9138 <__retarget_lock_acquire_recursive>
    915c:	4b22      	ldr	r3, [pc, #136]	; (91e8 <__register_exitproc+0xa8>)
    915e:	681b      	ldr	r3, [r3, #0]
    9160:	9301      	str	r3, [sp, #4]
    9162:	23a4      	movs	r3, #164	; 0xa4
    9164:	9a01      	ldr	r2, [sp, #4]
    9166:	005b      	lsls	r3, r3, #1
    9168:	58d5      	ldr	r5, [r2, r3]
    916a:	2d00      	cmp	r5, #0
    916c:	d02e      	beq.n	91cc <__register_exitproc+0x8c>
    916e:	686c      	ldr	r4, [r5, #4]
    9170:	2c1f      	cmp	r4, #31
    9172:	dc30      	bgt.n	91d6 <__register_exitproc+0x96>
    9174:	2e00      	cmp	r6, #0
    9176:	d10f      	bne.n	9198 <__register_exitproc+0x58>
    9178:	1c63      	adds	r3, r4, #1
    917a:	606b      	str	r3, [r5, #4]
    917c:	464b      	mov	r3, r9
    917e:	3402      	adds	r4, #2
    9180:	00a4      	lsls	r4, r4, #2
    9182:	6838      	ldr	r0, [r7, #0]
    9184:	5163      	str	r3, [r4, r5]
    9186:	f7ff ffd9 	bl	913c <__retarget_lock_release_recursive>
    918a:	2000      	movs	r0, #0
    918c:	b002      	add	sp, #8
    918e:	bc1c      	pop	{r2, r3, r4}
    9190:	4690      	mov	r8, r2
    9192:	4699      	mov	r9, r3
    9194:	46a2      	mov	sl, r4
    9196:	bdf0      	pop	{r4, r5, r6, r7, pc}
    9198:	2288      	movs	r2, #136	; 0x88
    919a:	4651      	mov	r1, sl
    919c:	0028      	movs	r0, r5
    919e:	00a3      	lsls	r3, r4, #2
    91a0:	18eb      	adds	r3, r5, r3
    91a2:	5099      	str	r1, [r3, r2]
    91a4:	3a87      	subs	r2, #135	; 0x87
    91a6:	40a2      	lsls	r2, r4
    91a8:	3089      	adds	r0, #137	; 0x89
    91aa:	30ff      	adds	r0, #255	; 0xff
    91ac:	6801      	ldr	r1, [r0, #0]
    91ae:	4311      	orrs	r1, r2
    91b0:	6001      	str	r1, [r0, #0]
    91b2:	2184      	movs	r1, #132	; 0x84
    91b4:	4640      	mov	r0, r8
    91b6:	0049      	lsls	r1, r1, #1
    91b8:	5058      	str	r0, [r3, r1]
    91ba:	2e02      	cmp	r6, #2
    91bc:	d1dc      	bne.n	9178 <__register_exitproc+0x38>
    91be:	002b      	movs	r3, r5
    91c0:	338d      	adds	r3, #141	; 0x8d
    91c2:	33ff      	adds	r3, #255	; 0xff
    91c4:	6819      	ldr	r1, [r3, #0]
    91c6:	430a      	orrs	r2, r1
    91c8:	601a      	str	r2, [r3, #0]
    91ca:	e7d5      	b.n	9178 <__register_exitproc+0x38>
    91cc:	0015      	movs	r5, r2
    91ce:	354d      	adds	r5, #77	; 0x4d
    91d0:	35ff      	adds	r5, #255	; 0xff
    91d2:	50d5      	str	r5, [r2, r3]
    91d4:	e7cb      	b.n	916e <__register_exitproc+0x2e>
    91d6:	6838      	ldr	r0, [r7, #0]
    91d8:	f7ff ffb0 	bl	913c <__retarget_lock_release_recursive>
    91dc:	2001      	movs	r0, #1
    91de:	4240      	negs	r0, r0
    91e0:	e7d4      	b.n	918c <__register_exitproc+0x4c>
    91e2:	46c0      	nop			; (mov r8, r8)
    91e4:	00019a58 	.word	0x00019a58
    91e8:	000091f8 	.word	0x000091f8

Disassembly of section .fini:

000091ec <_fini>:
_fini():
    91ec:	b5f8      	push	{r3, r4, r5, r6, r7, lr}
    91ee:	46c0      	nop			; (mov r8, r8)
    91f0:	bcf8      	pop	{r3, r4, r5, r6, r7}
    91f2:	bc08      	pop	{r3}
    91f4:	469e      	mov	lr, r3
    91f6:	4770      	bx	lr
